(dp0
S'L_s'
p1
(lp2
F0.17197674261364532
aF0.17197674261364532
aF0.17197674261364532
aF0.17197674261364532
aF0.17197674261364532
aF0.17197674261364532
aF0.17197674261364532
aF0.17197674261364532
aF0.17197674261364532
aF0.17197674261364532
aF0.17197674261364532
aF0.17197674261364532
aF0.17197674261364532
aF0.17197674261364532
aF0.17197674261364532
aF0.17197674261364532
aF0.17197674261364532
aF0.17197674261364532
aF0.17197674261364532
aF0.17197674261364532
aF0.17197674261364532
aF0.17197674261364532
aF0.17197674261364532
aF0.17197674261364532
aF0.17197674261364532
aF0.17197674261364532
aF0.17197674261364532
aF0.17197674261364532
aF0.17197674261364532
aF0.17197674261364532
aF0.17197674261364532
aF0.17197674261364532
aF0.17197674261364532
aF0.17197674261364532
aF0.17197674261364532
aF0.17197674261364532
aF0.17197674261364532
aF0.17197674261364532
aF0.17197674261364532
aF0.17197674261364532
aF0.17197674261364532
aF0.17197674261364532
aF0.17197674261364532
aF0.17197674261364532
aF0.17197674261364532
aF0.17197674261364532
aF0.17197674261364532
aF0.17197674261364532
aF0.17197674261364532
aF0.17197674261364532
aF0.17197674261364532
aF0.17197674261364532
aF0.17197674261364532
aF0.17197674261364532
aF0.17197674261364532
aF0.17197674261364532
aF0.17197674261364532
aF0.17197674261364532
aF0.17197674261364532
aF0.17197674261364532
aF0.17197674261364532
aF0.17197674261364532
aF0.17197674261364532
aF0.17197674261364532
aF0.17197674261364532
aF0.17197674261364532
aF0.17197674261364532
aF0.17197674261364532
aF0.17197674261364532
aF0.17197674261364532
aF0.17197674261364532
aF0.17197674261364532
aF0.17197674261364532
aF0.17197674261364532
aF0.17197674261364532
aF0.17197674261364532
aF0.17197674261364532
aF0.17197671095186523
aF0.1719766044431943
aF0.17197635760063895
aF0.17197582904253916
aF0.17197483323536755
aF0.1719731608162953
aF0.17197058336425677
aF0.17196685193356945
aF0.17196169507437337
aF0.17195481675651547
aF0.17194589388245327
aF0.1719345731973099
aF0.1719204674838135
aF0.17190315094904146
aF0.17188215370601304
aF0.17185695524415895
aF0.17182697677725545
aF0.17179157236273027
aF0.17175001871179127
aF0.17170150367012918
aF0.17164511346669103
aF0.17157981903805333
aF0.1715044620900556
aF0.17141774213035257
aF0.1713182065933222
aF0.17120424749704688
aF0.17107410992149974
aF0.17092591998399026
aF0.1707577426596056
aF0.17056768195890415
aF0.1703540359460045
aF0.17011551408118167
aF0.16985151109325053
aF0.16956240833593528
aF0.16924984421612727
aF0.16891687259095106
aF0.16856793103048784
aF0.1682085820158626
aF0.16784505962448068
aF0.16748371879645393
aF0.16713050927973547
aF0.16679057241921214
aF0.16646800615031251
aF0.16616579184199393
aF0.16588584498693368
aF0.16562914253476746
aF0.16539588541800349
aF0.1651856666120887
aF0.16499762687923536
aF0.16483058950724827
aF0.16468317141272573
aF0.16455387147062872
aF0.16444113863754378
aF0.16434342303559415
aF0.16425921314986763
aF0.1641870619812422
aF0.16412560457524097
aF0.16407356891673025
aF0.16402978178813057
aF0.1639931708536659
aF0.16396276395655107
aF0.16393768639487646
aF0.16391715676737473
aF0.16390048184383374
aF0.1638870508089346
aF0.163876329146123
aF0.16386785236437987
aF0.16386121972117265
aF0.16385608805619453
aF0.16385216582046272
aF0.16384920736270542
aF0.16384700751984851
aF0.16384539655247168
aF0.16384423547137833
aF0.16384341181439563
aF0.1638428359320476
aF0.1638424377846643
aF0.16384216412446373
aF0.16384197582421442
aF0.1638418451747041
aF0.16384175320164943
aF0.16384150177549361
aF0.16384150177549356
aF0.16384150177549361
aF0.16384150177549361
aF0.16384150177549361
aF0.16384150177549361
aF0.16384150177549361
aF0.16384150177549361
aF0.16384150177549361
aF0.16384150177549361
aF0.16384150177549361
aF0.16384150177549361
aF0.16384150177549361
aF0.16384150177549361
aF0.16384150177549361
aF0.16384150177549361
aF0.16384150177549361
aF0.16384150177549361
aF0.16384150177549361
aF0.16384150177549361
aF0.16384150177549361
aF0.16384150177549361
aF0.16384150177549361
aF0.16384150177549361
aF0.16384150177549361
aF0.16384150177549361
aF0.16384150177549361
aF0.16384150177549361
aF0.16384150177549361
aF0.16384150177549361
aF0.16384150177549361
aF0.16384150177549361
aF0.16384150177549361
aF0.16384150177549361
aF0.16384150177549361
aF0.16384150177549361
aF0.16384150177549361
aF0.16384150177549361
aF0.16384150177549361
aF0.16384150177549361
aF0.16384150177549361
aF0.16384150177549361
asS'xi'
p3
(lp4
F1.0
aF1.0
aF1.0
aF1.0
aF1.0
aF1.0
aF1.0
aF1.0
aF1.0
aF1.0
aF1.0
aF1.0
aF1.0
aF1.0
aF1.0
aF1.0
aF1.0
aF1.0
aF1.0
aF1.0
aF1.0
aF1.0
aF1.0
aF1.0
aF1.0
aF1.0
aF1.0
aF1.0
aF1.0
aF1.0
aF1.0
aF1.0
aF1.0
aF1.0
aF1.0
aF1.0
aF1.0
aF1.0
aF1.0
aF1.0
aF1.0
aF1.0
aF1.0
aF1.0
aF1.0
aF1.0
aF1.0
aF1.0
aF1.0
aF1.0
aF1.0
aF1.0
aF1.0
aF1.0
aF1.0
aF1.0
aF1.0
aF1.0
aF1.0
aF1.0
aF1.0
aF1.0
aF1.0
aF1.0
aF1.0
aF1.0
aF1.0
aF1.0
aF1.0
aF1.0
aF1.0
aF1.0
aF1.0
aF1.0
aF1.0
aF1.0
aF1.0
aF0.9999960397006584
aF0.9999827174538914
aF0.9999518420896656
aF0.9998857295568546
aF0.9997611736405595
aF0.999551988511548
aF0.9992296064637055
aF0.9987628959695668
aF0.9981179161895593
aF0.9972576602124745
aF0.996141747903262
aF0.9947260446171127
aF0.9929621920650351
aF0.9907970401061468
aF0.9881719678735513
aF0.9850220816608801
aF0.9812752765027059
aF0.9768511492788311
aF0.9716597546472938
aF0.9656002029785302
aF0.958559114544632
aF0.9504089708240091
aF0.9410064482957872
aF0.930190891554912
aF0.9177831928811719
aF0.9035855083149902
aF0.8873824675186565
aF0.8689448257869158
aF0.8480368284848276
aF0.824428810983985
aF0.7979165311131446
aF0.7683480850608279
aF0.7356575915004159
aF0.6999019523636363
aF0.6612934144578594
aF0.6202179600404084
aF0.5772300747015052
aF0.5330196487725558
aF0.48835535832674387
aF0.4440167039326312
aF0.40072974987293775
aF0.3591184610678484
aF0.31967694071436925
aF0.2827615296929321
aF0.24859792631260097
aF0.21729745455533242
aF0.18887739240365728
aF0.16328176275979142
aF0.14040045410367116
aF0.12008566031592548
aF0.10216536237154113
aF0.08645399104147969
aF0.07276060796636659
aF0.06089500729834128
aF0.050672132030955275
aF0.04191515667863797
aF0.03445753355668772
aF0.028144245458283465
aF0.02283245858523427
aF0.018391728140648326
aF0.014703875151842252
aF0.011662626112286216
aF0.009173085854381216
aF0.007151097605142457
aF0.005522531453049861
aF0.004222532637074821
aF0.0031947534864551186
aF0.0023905869648715174
aF0.0017684152066968135
aF0.0012928828969154085
aF0.0009342026910385624
aF0.00066749811159034
aF0.00047218869687493256
aF0.00033142286412795533
aF0.00023156555816227628
aF0.00016174772713098762
aF0.00011347788890765987
aF8.030042397732165e-05
aF5.747167229442938e-05
aF4.163226756153466e-05
aF3.0481839472302553e-05
aF0.0
aF0.0
aF0.0
aF0.0
aF0.0
aF0.0
aF0.0
aF0.0
aF0.0
aF0.0
aF0.0
aF0.0
aF0.0
aF0.0
aF0.0
aF0.0
aF0.0
aF0.0
aF0.0
aF0.0
aF0.0
aF0.0
aF0.0
aF0.0
aF0.0
aF0.0
aF0.0
aF0.0
aF0.0
aF0.0
aF0.0
aF0.0
aF0.0
aF0.0
aF0.0
aF0.0
aF0.0
aF0.0
aF0.0
aF0.0
aF0.0
aF0.0
asS'T'
p5
(lp6
cnumpy.core.multiarray
scalar
p7
(cnumpy
dtype
p8
(S'f8'
p9
I0
I1
tp10
Rp11
(I3
S'<'
p12
NNNI-1
I-1
I0
tp13
bS'fffff\xf2r@'
p14
tp15
Rp16
ag7
(g11
S'<=F\x85>\xfbr@'
p17
tp18
Rp19
ag7
(g11
S'\x11\x14&\xa4\x16\x04s@'
p20
tp21
Rp22
ag7
(g11
S'\xe7\xea\x05\xc3\xee\x0cs@'
p23
tp24
Rp25
ag7
(g11
S'\xbc\xc1\xe5\xe1\xc6\x15s@'
p26
tp27
Rp28
ag7
(g11
S'\x92\x98\xc5\x00\x9f\x1es@'
p29
tp30
Rp31
ag7
(g11
S"go\xa5\x1fw's@"
p32
tp33
Rp34
ag7
(g11
S'=F\x85>O0s@'
p35
tp36
Rp37
ag7
(g11
S"\x12\x1de]'9s@"
p38
tp39
Rp40
ag7
(g11
S'\xe8\xf3D|\xffAs@'
p41
tp42
Rp43
ag7
(g11
S'\xbd\xca$\x9b\xd7Js@'
p44
tp45
Rp46
ag7
(g11
S'\x93\xa1\x04\xba\xafSs@'
p47
tp48
Rp49
ag7
(g11
S'ix\xe4\xd8\x87\\s@'
p50
tp51
Rp52
ag7
(g11
S'>O\xc4\xf7_es@'
p53
tp54
Rp55
ag7
(g11
S'\x14&\xa4\x168ns@'
p56
tp57
Rp58
ag7
(g11
S'\xe9\xfc\x835\x10ws@'
p59
tp60
Rp61
ag7
(g11
S'\xbf\xd3cT\xe8\x7fs@'
p62
tp63
Rp64
ag7
(g11
S'\x94\xaaCs\xc0\x88s@'
p65
tp66
Rp67
ag7
(g11
S'j\x81#\x92\x98\x91s@'
p68
tp69
Rp70
ag7
(g11
S'?X\x03\xb1p\x9as@'
p71
tp72
Rp73
ag7
(g11
S'\x15/\xe3\xcfH\xa3s@'
p74
tp75
Rp76
ag7
(g11
S'\xea\x05\xc3\xee \xacs@'
p77
tp78
Rp79
ag7
(g11
S'\xc0\xdc\xa2\r\xf9\xb4s@'
p80
tp81
Rp82
ag7
(g11
S'\x96\xb3\x82,\xd1\xbds@'
p83
tp84
Rp85
ag7
(g11
S'k\x8abK\xa9\xc6s@'
p86
tp87
Rp88
ag7
(g11
S'AaBj\x81\xcfs@'
p89
tp90
Rp91
ag7
(g11
S'\x168"\x89Y\xd8s@'
p92
tp93
Rp94
ag7
(g11
S'\xec\x0e\x02\xa81\xe1s@'
p95
tp96
Rp97
ag7
(g11
S'\xc1\xe5\xe1\xc6\t\xeas@'
p98
tp99
Rp100
ag7
(g11
S'\x97\xbc\xc1\xe5\xe1\xf2s@'
p101
tp102
Rp103
ag7
(g11
S'l\x93\xa1\x04\xba\xfbs@'
p104
tp105
Rp106
ag7
(g11
S'Bj\x81#\x92\x04t@'
p107
tp108
Rp109
ag7
(g11
S'\x18AaBj\rt@'
p110
tp111
Rp112
ag7
(g11
S'\xed\x17AaB\x16t@'
p113
tp114
Rp115
ag7
(g11
S'\xc3\xee \x80\x1a\x1ft@'
p116
tp117
Rp118
ag7
(g11
S"\x98\xc5\x00\x9f\xf2't@"
p119
tp120
Rp121
ag7
(g11
S'n\x9c\xe0\xbd\xca0t@'
p122
tp123
Rp124
ag7
(g11
S'Cs\xc0\xdc\xa29t@'
p125
tp126
Rp127
ag7
(g11
S'\x19J\xa0\xfbzBt@'
p128
tp129
Rp130
ag7
(g11
S'\xee \x80\x1aSKt@'
p131
tp132
Rp133
ag7
(g11
S'\xc4\xf7_9+Tt@'
p134
tp135
Rp136
ag7
(g11
S'\x99\xce?X\x03]t@'
p137
tp138
Rp139
ag7
(g11
S'o\xa5\x1fw\xdbet@'
p140
tp141
Rp142
ag7
(g11
S'D|\xff\x95\xb3nt@'
p143
tp144
Rp145
ag7
(g11
S'\x1aS\xdf\xb4\x8bwt@'
p146
tp147
Rp148
ag7
(g11
S'\xf0)\xbf\xd3c\x80t@'
p149
tp150
Rp151
ag7
(g11
S'\xc5\x00\x9f\xf2;\x89t@'
p152
tp153
Rp154
ag7
(g11
S'\x9b\xd7~\x11\x14\x92t@'
p155
tp156
Rp157
ag7
(g11
S'p\xae^0\xec\x9at@'
p158
tp159
Rp160
ag7
(g11
S'F\x85>O\xc4\xa3t@'
p161
tp162
Rp163
ag7
(g11
S'\x1b\\\x1en\x9c\xact@'
p164
tp165
Rp166
ag7
(g11
S'\xf12\xfe\x8ct\xb5t@'
p167
tp168
Rp169
ag7
(g11
S'\xc6\t\xde\xabL\xbet@'
p170
tp171
Rp172
ag7
(g11
S'\x9c\xe0\xbd\xca$\xc7t@'
p173
tp174
Rp175
ag7
(g11
S'r\xb7\x9d\xe9\xfc\xcft@'
p176
tp177
Rp178
ag7
(g11
S'G\x8e}\x08\xd5\xd8t@'
p179
tp180
Rp181
ag7
(g11
S"\x1de]'\xad\xe1t@"
p182
tp183
Rp184
ag7
(g11
S'\xf2;=F\x85\xeat@'
p185
tp186
Rp187
ag7
(g11
S'\xc8\x12\x1de]\xf3t@'
p188
tp189
Rp190
ag7
(g11
S'\x9d\xe9\xfc\x835\xfct@'
p191
tp192
Rp193
ag7
(g11
S's\xc0\xdc\xa2\r\x05u@'
p194
tp195
Rp196
ag7
(g11
S'H\x97\xbc\xc1\xe5\ru@'
p197
tp198
Rp199
ag7
(g11
S'\x1en\x9c\xe0\xbd\x16u@'
p200
tp201
Rp202
ag7
(g11
S'\xf4D|\xff\x95\x1fu@'
p203
tp204
Rp205
ag7
(g11
S'\xc9\x1b\\\x1en(u@'
p206
tp207
Rp208
ag7
(g11
S'\x9e\xf2;=F1u@'
p209
tp210
Rp211
ag7
(g11
S't\xc9\x1b\\\x1e:u@'
p212
tp213
Rp214
ag7
(g11
S'J\xa0\xfbz\xf6Bu@'
p215
tp216
Rp217
ag7
(g11
S'\x1fw\xdb\x99\xceKu@'
p218
tp219
Rp220
ag7
(g11
S'\xf5M\xbb\xb8\xa6Tu@'
p221
tp222
Rp223
ag7
(g11
S'\xca$\x9b\xd7~]u@'
p224
tp225
Rp226
ag7
(g11
S'\xa0\xfbz\xf6Vfu@'
p227
tp228
Rp229
ag7
(g11
S'u\xd2Z\x15/ou@'
p230
tp231
Rp232
ag7
(g11
S'K\xa9:4\x07xu@'
p233
tp234
Rp235
ag7
(g11
S' \x80\x1aS\xdf\x80u@'
p236
tp237
Rp238
ag7
(g11
S'\xf6V\xfaq\xb7\x89u@'
p239
tp240
Rp241
ag7
(g11
S'\xcc-\xda\x90\x8f\x92u@'
p242
tp243
Rp244
ag7
(g11
S'\xa1\x04\xba\xafg\x9bu@'
p245
tp246
Rp247
ag7
(g11
S'w\xdb\x99\xce?\xa4u@'
p248
tp249
Rp250
ag7
(g11
S'L\xb2y\xed\x17\xadu@'
p251
tp252
Rp253
ag7
(g11
S'"\x89Y\x0c\xf0\xb5u@'
p254
tp255
Rp256
ag7
(g11
S'\xf7_9+\xc8\xbeu@'
p257
tp258
Rp259
ag7
(g11
S'\xcd6\x19J\xa0\xc7u@'
p260
tp261
Rp262
ag7
(g11
S'\xa2\r\xf9hx\xd0u@'
p263
tp264
Rp265
ag7
(g11
S'x\xe4\xd8\x87P\xd9u@'
p266
tp267
Rp268
ag7
(g11
S'N\xbb\xb8\xa6(\xe2u@'
p269
tp270
Rp271
ag7
(g11
S'#\x92\x98\xc5\x00\xebu@'
p272
tp273
Rp274
ag7
(g11
S'\xf9hx\xe4\xd8\xf3u@'
p275
tp276
Rp277
ag7
(g11
S'\xce?X\x03\xb1\xfcu@'
p278
tp279
Rp280
ag7
(g11
S'\xa4\x168"\x89\x05v@'
p281
tp282
Rp283
ag7
(g11
S'y\xed\x17Aa\x0ev@'
p284
tp285
Rp286
ag7
(g11
S'O\xc4\xf7_9\x17v@'
p287
tp288
Rp289
ag7
(g11
S'$\x9b\xd7~\x11 v@'
p290
tp291
Rp292
ag7
(g11
S'\xfaq\xb7\x9d\xe9(v@'
p293
tp294
Rp295
ag7
(g11
S'\xcfH\x97\xbc\xc11v@'
p296
tp297
Rp298
ag7
(g11
S'\xa5\x1fw\xdb\x99:v@'
p299
tp300
Rp301
ag7
(g11
S'z\xf6V\xfaqCv@'
p302
tp303
Rp304
ag7
(g11
S'P\xcd6\x19JLv@'
p305
tp306
Rp307
ag7
(g11
S'&\xa4\x168"Uv@'
p308
tp309
Rp310
ag7
(g11
S'\xfbz\xf6V\xfa]v@'
p311
tp312
Rp313
ag7
(g11
S'\xd1Q\xd6u\xd2fv@'
p314
tp315
Rp316
ag7
(g11
S'\xa6(\xb6\x94\xaaov@'
p317
tp318
Rp319
ag7
(g11
S'|\xff\x95\xb3\x82xv@'
p320
tp321
Rp322
ag7
(g11
S'Q\xd6u\xd2Z\x81v@'
p323
tp324
Rp325
ag7
(g11
S"'\xadU\xf12\x8av@"
p326
tp327
Rp328
ag7
(g11
S'\xfc\x835\x10\x0b\x93v@'
p329
tp330
Rp331
ag7
(g11
S'\xd2Z\x15/\xe3\x9bv@'
p332
tp333
Rp334
ag7
(g11
S'\xa81\xf5M\xbb\xa4v@'
p335
tp336
Rp337
ag7
(g11
S'}\x08\xd5l\x93\xadv@'
p338
tp339
Rp340
ag7
(g11
S'S\xdf\xb4\x8bk\xb6v@'
p341
tp342
Rp343
ag7
(g11
S'(\xb6\x94\xaaC\xbfv@'
p344
tp345
Rp346
ag7
(g11
S'\xfe\x8ct\xc9\x1b\xc8v@'
p347
tp348
Rp349
ag7
(g11
S'\xd3cT\xe8\xf3\xd0v@'
p350
tp351
Rp352
ag7
(g11
S'\xa9:4\x07\xcc\xd9v@'
p353
tp354
Rp355
ag7
(g11
S'~\x11\x14&\xa4\xe2v@'
p356
tp357
Rp358
ag7
(g11
S'T\xe8\xf3D|\xebv@'
p359
tp360
Rp361
ag7
(g11
S'*\xbf\xd3cT\xf4v@'
p362
tp363
Rp364
ag7
(g11
S'\xff\x95\xb3\x82,\xfdv@'
p365
tp366
Rp367
ag7
(g11
S'\xd4l\x93\xa1\x04\x06w@'
p368
tp369
Rp370
ag7
(g11
S'\xaaCs\xc0\xdc\x0ew@'
p371
tp372
Rp373
ag7
(g11
S'\x80\x1aS\xdf\xb4\x17w@'
p374
tp375
Rp376
ag7
(g11
S'U\xf12\xfe\x8c w@'
p377
tp378
Rp379
ag7
(g11
S'+\xc8\x12\x1de)w@'
p380
tp381
Rp382
ag7
(g11
S'\x00\x9f\xf2;=2w@'
p383
tp384
Rp385
ag7
(g11
S'\xd6u\xd2Z\x15;w@'
p386
tp387
Rp388
ag7
(g11
S'\xabL\xb2y\xedCw@'
p389
tp390
Rp391
ag7
(g11
S'\x81#\x92\x98\xc5Lw@'
p392
tp393
Rp394
ag7
(g11
S'V\xfaq\xb7\x9dUw@'
p395
tp396
Rp397
ag7
(g11
S',\xd1Q\xd6u^w@'
p398
tp399
Rp400
ag7
(g11
S'\x02\xa81\xf5Mgw@'
p401
tp402
Rp403
ag7
(g11
S'\xd7~\x11\x14&pw@'
p404
tp405
Rp406
ag7
(g11
S'\xadU\xf12\xfexw@'
p407
tp408
Rp409
ag7
(g11
S'\x82,\xd1Q\xd6\x81w@'
p410
tp411
Rp412
ag7
(g11
S'X\x03\xb1p\xae\x8aw@'
p413
tp414
Rp415
ag7
(g11
S'-\xda\x90\x8f\x86\x93w@'
p416
tp417
Rp418
ag7
(g11
S'\x03\xb1p\xae^\x9cw@'
p419
tp420
Rp421
ag7
(g11
S'\xd8\x87P\xcd6\xa5w@'
p422
tp423
Rp424
ag7
(g11
S'\xae^0\xec\x0e\xaew@'
p425
tp426
Rp427
ag7
(g11
S'\x845\x10\x0b\xe7\xb6w@'
p428
tp429
Rp430
ag7
(g11
S'Y\x0c\xf0)\xbf\xbfw@'
p431
tp432
Rp433
ag7
(g11
S'.\xe3\xcfH\x97\xc8w@'
p434
tp435
Rp436
ag7
(g11
S'\x04\xba\xafgo\xd1w@'
p437
tp438
Rp439
ag7
(g11
S'\xda\x90\x8f\x86G\xdaw@'
p440
tp441
Rp442
ag7
(g11
S'\xafgo\xa5\x1f\xe3w@'
p443
tp444
Rp445
ag7
(g11
S'\x85>O\xc4\xf7\xebw@'
p446
tp447
Rp448
ag7
(g11
S'Z\x15/\xe3\xcf\xf4w@'
p449
tp450
Rp451
ag7
(g11
S'0\xec\x0e\x02\xa8\xfdw@'
p452
tp453
Rp454
ag7
(g11
S'\x06\xc3\xee \x80\x06x@'
p455
tp456
Rp457
ag7
(g11
S'\xdb\x99\xce?X\x0fx@'
p458
tp459
Rp460
ag7
(g11
S'\xb0p\xae^0\x18x@'
p461
tp462
Rp463
ag7
(g11
S'\x86G\x8e}\x08!x@'
p464
tp465
Rp466
ag7
(g11
S'\\\x1en\x9c\xe0)x@'
p467
tp468
Rp469
ag7
(g11
S'1\xf5M\xbb\xb82x@'
p470
tp471
Rp472
ag7
(g11
S'\x07\xcc-\xda\x90;x@'
p473
tp474
Rp475
ag7
(g11
S'\xdc\xa2\r\xf9hDx@'
p476
tp477
Rp478
ag7
(g11
S'\xb2y\xed\x17AMx@'
p479
tp480
Rp481
ag7
(g11
S'\x87P\xcd6\x19Vx@'
p482
tp483
Rp484
ag7
(g11
S"]'\xadU\xf1^x@"
p485
tp486
Rp487
ag7
(g11
S'2\xfe\x8ct\xc9gx@'
p488
tp489
Rp490
ag7
(g11
S'\x08\xd5l\x93\xa1px@'
p491
tp492
Rp493
ag7
(g11
S'\xde\xabL\xb2yyx@'
p494
tp495
Rp496
ag7
(g11
S'\xb3\x82,\xd1Q\x82x@'
p497
tp498
Rp499
ag7
(g11
S'\x88Y\x0c\xf0)\x8bx@'
p500
tp501
Rp502
ag7
(g11
S'^0\xec\x0e\x02\x94x@'
p503
tp504
Rp505
ag7
(g11
S'4\x07\xcc-\xda\x9cx@'
p506
tp507
Rp508
ag7
(g11
S'\t\xde\xabL\xb2\xa5x@'
p509
tp510
Rp511
ag7
(g11
S'\xdf\xb4\x8bk\x8a\xaex@'
p512
tp513
Rp514
ag7
(g11
S'\xb4\x8bk\x8ab\xb7x@'
p515
tp516
Rp517
ag7
(g11
S'\x8abK\xa9:\xc0x@'
p518
tp519
Rp520
ag7
(g11
S'`9+\xc8\x12\xc9x@'
p521
tp522
Rp523
ag7
(g11
S'5\x10\x0b\xe7\xea\xd1x@'
p524
tp525
Rp526
ag7
(g11
S'\n\xe7\xea\x05\xc3\xdax@'
p527
tp528
Rp529
ag7
(g11
S'\xe0\xbd\xca$\x9b\xe3x@'
p530
tp531
Rp532
ag7
(g11
S'\xb6\x94\xaaCs\xecx@'
p533
tp534
Rp535
ag7
(g11
S'\x8bk\x8abK\xf5x@'
p536
tp537
Rp538
ag7
(g11
S'aBj\x81#\xfex@'
p539
tp540
Rp541
ag7
(g11
S'6\x19J\xa0\xfb\x06y@'
p542
tp543
Rp544
ag7
(g11
S'\x0c\xf0)\xbf\xd3\x0fy@'
p545
tp546
Rp547
ag7
(g11
S'\xe1\xc6\t\xde\xab\x18y@'
p548
tp549
Rp550
ag7
(g11
S'\xb7\x9d\xe9\xfc\x83!y@'
p551
tp552
Rp553
ag7
(g11
S'\x8ct\xc9\x1b\\*y@'
p554
tp555
Rp556
ag7
(g11
S'bK\xa9:43y@'
p557
tp558
Rp559
ag7
(g11
S'8"\x89Y\x0c<y@'
p560
tp561
Rp562
ag7
(g11
S'\r\xf9hx\xe4Dy@'
p563
tp564
Rp565
ag7
(g11
S'\xe2\xcfH\x97\xbcMy@'
p566
tp567
Rp568
ag7
(g11
S'\xb8\xa6(\xb6\x94Vy@'
p569
tp570
Rp571
ag7
(g11
S'\x8e}\x08\xd5l_y@'
p572
tp573
Rp574
ag7
(g11
S'cT\xe8\xf3Dhy@'
p575
tp576
Rp577
ag7
(g11
S'9+\xc8\x12\x1dqy@'
p578
tp579
Rp580
ag7
(g11
S'\x0e\x02\xa81\xf5yy@'
p581
tp582
Rp583
ag7
(g11
S'\xe4\xd8\x87P\xcd\x82y@'
p584
tp585
Rp586
ag7
(g11
S'\xba\xafgo\xa5\x8by@'
p587
tp588
Rp589
ag7
(g11
S'\x8f\x86G\x8e}\x94y@'
p590
tp591
Rp592
ag7
(g11
S"d]'\xadU\x9dy@"
p593
tp594
Rp595
ag7
(g11
S':4\x07\xcc-\xa6y@'
p596
tp597
Rp598
ag7
(g11
S'\x10\x0b\xe7\xea\x05\xafy@'
p599
tp600
Rp601
ag7
(g11
S'\xe5\xe1\xc6\t\xde\xb7y@'
p602
tp603
Rp604
ag7
(g11
S'\xbb\xb8\xa6(\xb6\xc0y@'
p605
tp606
Rp607
ag7
(g11
S'\x90\x8f\x86G\x8e\xc9y@'
p608
tp609
Rp610
ag7
(g11
S'fffff\xd2y@'
p611
tp612
Rp613
asS'eps_l'
p614
(lp615
F1.9552714775844642
aF1.9552714775844642
aF1.9552714775844642
aF1.9552714775844642
aF1.9552714775844642
aF1.9552714775844642
aF1.9552714775844642
aF1.9552714775844642
aF1.9552714775844642
aF1.9552714775844642
aF1.9552714775844642
aF1.9552714775844642
aF1.9552714775844642
aF1.9552714775844642
aF1.9552714775844642
aF1.9552714775844642
aF1.9552714775844642
aF1.9552714775844642
aF1.9552714775844642
aF1.9552714775844642
aF1.9552714775844642
aF1.9552714775844642
aF1.9552714775844642
aF1.9552714775844642
aF1.9552714775844642
aF1.9552714775844642
aF1.9552714775844642
aF1.9552714775844642
aF1.9552714775844642
aF1.9552714775844642
aF1.9552714775844642
aF1.9552714775844642
aF1.9552714775844642
aF1.9552714775844642
aF1.9552714775844642
aF1.9552714775844642
aF1.9552714775844642
aF1.9552714775844642
aF1.9552714775844642
aF1.9552714775844642
aF1.9552714775844642
aF1.9552714775844642
aF1.9552714775844642
aF1.9552714775844642
aF1.9552714775844642
aF1.9552714775844642
aF1.9552714775844642
aF1.9552714775844642
aF1.9552714775844642
aF1.9552714775844642
aF1.9552714775844642
aF1.9552714775844642
aF1.9552714775844642
aF1.9552714775844642
aF1.9552714775844642
aF1.9552714775844642
aF1.9552714775844642
aF1.9552714775844642
aF1.9552714775844642
aF1.9552714775844642
aF1.9552714775844642
aF1.9552714775844642
aF1.9552714775844642
aF1.9552714775844642
aF1.9552714775844642
aF1.9552714775844642
aF1.9552714775844642
aF1.9552714775844642
aF1.9552714775844642
aF1.9552714775844642
aF1.9552714775844642
aF1.9552714775844642
aF1.9552714775844642
aF1.9552714775844642
aF1.9552714775844642
aF1.9552714775844642
aF1.9552714775844642
aF1.9552722867613088
aF1.955275008771721
aF1.9552813171308472
aF1.9552948244942652
aF1.955320270328213
aF1.9553629993370794
aF1.9554288358476826
aF1.9555241156735366
aF1.955655728643693
aF1.9558311605186818
aF1.956058541548753
aF1.9563467055958141
aF1.9567052614418934
aF1.9571446770740049
aF1.957676377394455
aF1.958312855476184
aF1.9590677969183425
aF1.9599562158524098
aF1.9609945994509044
aF1.962201055043837
aF1.9635954496463461
aF1.9651995251412346
aF1.9670369626115414
aF1.9691333552480437
aF1.9715160297012297
aF1.974213630003181
aF1.977255347103791
aF1.9806696451686987
aF1.9844823147051032
aF1.9887136954756808
aF1.9933749965502314
aF1.9984638431624586
aF2.0039595305523212
aF2.0098189250267806
aF2.0159743521881666
aF2.0223348487280117
aF2.0287915439170763
aF2.035226705861647
aF2.041524645977211
aF2.0475819712096963
aF2.0533150217387783
aF2.0586634719831256
aF2.063590322945152
aF2.068079313910726
aF2.0721309872852296
aF2.075758430660428
aF2.078983354638101
aF2.0818328256102028
aF2.0843367340858987
aF2.0865259438747805
aF2.0884310086838305
aF2.090081330406734
aF2.091504644590652
aF2.09272673878368
aF2.093771330856563
aF2.0946600533715607
aF2.095412505451682
aF2.0960463453842055
aF2.0965774058663302
aF2.0970198199951695
aF2.097386150414148
aF2.0976875169543145
aF2.0979337200472554
aF2.0981333584349158
aF2.0982939404801724
aF2.0984219888479942
aF2.098523138591069
aF2.098602228812028
aF2.098663388137212
aF2.098710114254798
aF2.0987453477560694
aF2.098771540466721
aF2.0987907183397168
aF2.0988045387717413
aF2.0988143419373246
aF2.098821195653884
aF2.098825933893763
aF2.09882919054746
aF2.0988314313404097
aF2.098832986060946
aF2.0988340805231593
aF2.098837072400946
aF2.098837072400946
aF2.0988370724009453
aF2.0988370724009453
aF2.0988370724009453
aF2.0988370724009453
aF2.0988370724009453
aF2.0988370724009453
aF2.0988370724009453
aF2.0988370724009453
aF2.0988370724009453
aF2.0988370724009453
aF2.0988370724009453
aF2.0988370724009453
aF2.0988370724009453
aF2.0988370724009453
aF2.0988370724009453
aF2.0988370724009453
aF2.0988370724009453
aF2.0988370724009453
aF2.0988370724009453
aF2.0988370724009453
aF2.0988370724009453
aF2.0988370724009453
aF2.0988370724009453
aF2.0988370724009453
aF2.0988370724009453
aF2.0988370724009453
aF2.0988370724009453
aF2.0988370724009453
aF2.0988370724009453
aF2.0988370724009453
aF2.0988370724009453
aF2.0988370724009453
aF2.0988370724009453
aF2.0988370724009453
aF2.0988370724009453
aF2.0988370724009453
aF2.0988370724009453
aF2.0988370724009453
aF2.0988370724009453
aF2.0988370724009453
asS'eps_s'
p616
(lp617
F0.04940548301669329
aF0.04940548301669329
aF0.04940548301669329
aF0.04940548301669329
aF0.04940548301669329
aF0.04940548301669329
aF0.04940548301669329
aF0.04940548301669329
aF0.04940548301669329
aF0.04940548301669329
aF0.04940548301669329
aF0.04940548301669329
aF0.04940548301669329
aF0.04940548301669329
aF0.04940548301669329
aF0.04940548301669329
aF0.04940548301669329
aF0.04940548301669329
aF0.04940548301669329
aF0.04940548301669329
aF0.04940548301669329
aF0.04940548301669329
aF0.04940548301669329
aF0.04940548301669329
aF0.04940548301669329
aF0.04940548301669329
aF0.04940548301669329
aF0.04940548301669329
aF0.04940548301669329
aF0.04940548301669329
aF0.04940548301669329
aF0.04940548301669329
aF0.04940548301669329
aF0.04940548301669329
aF0.04940548301669329
aF0.04940548301669329
aF0.04940548301669329
aF0.04940548301669329
aF0.04940548301669329
aF0.04940548301669329
aF0.04940548301669329
aF0.04940548301669329
aF0.04940548301669329
aF0.04940548301669329
aF0.04940548301669329
aF0.04940548301669329
aF0.04940548301669329
aF0.04940548301669329
aF0.04940548301669329
aF0.04940548301669329
aF0.04940548301669329
aF0.04940548301669329
aF0.04940548301669329
aF0.04940548301669329
aF0.04940548301669329
aF0.04940548301669329
aF0.04940548301669329
aF0.04940548301669329
aF0.04940548301669329
aF0.04940548301669329
aF0.04940548301669329
aF0.04940548301669329
aF0.04940548301669329
aF0.04940548301669329
aF0.04940548301669329
aF0.04940548301669329
aF0.04940548301669329
aF0.04940548301669329
aF0.04940548301669329
aF0.04940548301669329
aF0.04940548301669329
aF0.04940548301669329
aF0.04940548301669329
aF0.04940548301669329
aF0.04940548301669329
aF0.04940548301669329
aF0.04940548301669329
aF0.049405298911682265
aF0.049404679591480545
aF0.049403244266264176
aF0.04940017083847505
aF0.04939438047893876
aF0.04938465579729385
aF0.04936966858449195
aF0.049347971286179494
aF0.04931798549206731
aF0.049277989863859846
aF0.04922610567343644
aF0.04916027883562473
aF0.04907825778276595
aF0.04897756663983086
aF0.048855473136317946
aF0.04870895063873397
aF0.04853463365582176
aF0.04832876619963472
aF0.048087142534088745
aF0.047805040193244566
aF0.047477145836245
aF0.04709747572710459
aF0.04665929468673555
aF0.04615504069061343
aF0.04557626744768697
aF0.04491362496159633
aF0.04415690882911601
aF0.04329522291009383
aF0.042317315538266946
aF0.04121216202847848
aF0.03996986606652046
aF0.03858292349976497
aF0.03704781483379694
aF0.035366757541272664
aF0.033549278531857046
aF0.031613135189938676
aF0.029584130830627508
aF0.027494609833985842
aF0.025380821737658214
aF0.023279718864471933
aF0.021225897450305647
aF0.01924925307760083
aF0.01737361417435502
aF0.015616316625130957
aF0.013988498521323648
aF0.012495840570807252
aF0.01113951114382166
aF0.00991714349852311
aF0.008823741390798698
aF0.007852462545481711
aF0.006995264692550771
aF0.006243419180582232
aF0.005587907095798764
aF0.005019716301714529
aF0.004530057732499457
aF0.0041105174648509
aF0.0037531586437264458
aF0.003450584832175542
aF0.0031959740753126674
aF0.002983091019684227
aF0.002806282826595095
aF0.0026604633320897334
aF0.0025410888911638375
aF0.0024441285505529065
aF0.002366030578146869
aF0.0023036868992941093
aF0.00225439661960711
aF0.0022158295255545126
aF0.002185990229262971
aF0.002163183449275121
aF0.0021459807873782846
aF0.0021331892736918797
aF0.0021238219176624587
aF0.0021170705332851395
aF0.0021122811822940927
aF0.0021089325763179105
aF0.002106617452905198
aF0.002105026190060801
aF0.0021039312731177553
aF0.0021031715802178356
aF0.002102636780842096
aF0.0021011748031813143
aF0.0021011748031813135
aF0.002101174803181316
aF0.002101174803181315
aF0.0021011748031813152
aF0.0021011748031813157
aF0.0021011748031813152
aF0.0021011748031813157
aF0.0021011748031813152
aF0.0021011748031813157
aF0.0021011748031813152
aF0.0021011748031813157
aF0.0021011748031813152
aF0.0021011748031813157
aF0.0021011748031813152
aF0.0021011748031813157
aF0.0021011748031813152
aF0.0021011748031813157
aF0.0021011748031813152
aF0.0021011748031813157
aF0.0021011748031813152
aF0.0021011748031813157
aF0.0021011748031813152
aF0.0021011748031813157
aF0.0021011748031813152
aF0.0021011748031813157
aF0.0021011748031813152
aF0.0021011748031813157
aF0.0021011748031813152
aF0.0021011748031813157
aF0.0021011748031813152
aF0.0021011748031813157
aF0.0021011748031813152
aF0.0021011748031813157
aF0.0021011748031813152
aF0.0021011748031813157
aF0.0021011748031813152
aF0.0021011748031813157
aF0.0021011748031813152
aF0.0021011748031813157
aF0.0021011748031813152
aF0.0021011748031813157
asS'F_l'
p618
(lp619
F14.639125373760793
aF14.639125373760793
aF14.639125373760793
aF14.639125373760793
aF14.639125373760793
aF14.639125373760793
aF14.639125373760793
aF14.639125373760793
aF14.639125373760793
aF14.639125373760793
aF14.639125373760793
aF14.639125373760793
aF14.639125373760793
aF14.639125373760793
aF14.639125373760793
aF14.639125373760793
aF14.639125373760793
aF14.639125373760793
aF14.639125373760793
aF14.639125373760793
aF14.639125373760793
aF14.639125373760793
aF14.639125373760793
aF14.639125373760793
aF14.639125373760793
aF14.639125373760793
aF14.639125373760793
aF14.639125373760793
aF14.639125373760793
aF14.639125373760793
aF14.639125373760793
aF14.639125373760793
aF14.639125373760793
aF14.639125373760793
aF14.639125373760793
aF14.639125373760793
aF14.639125373760793
aF14.639125373760793
aF14.639125373760793
aF14.639125373760793
aF14.639125373760793
aF14.639125373760793
aF14.639125373760793
aF14.639125373760793
aF14.639125373760793
aF14.639125373760793
aF14.639125373760793
aF14.639125373760793
aF14.639125373760793
aF14.639125373760793
aF14.639125373760793
aF14.639125373760793
aF14.639125373760793
aF14.639125373760793
aF14.639125373760793
aF14.639125373760793
aF14.639125373760793
aF14.639125373760793
aF14.639125373760793
aF14.639125373760793
aF14.639125373760793
aF14.639125373760793
aF14.639125373760793
aF14.639125373760793
aF14.639125373760793
aF14.639125373760793
aF14.639125373760793
aF14.639125373760793
aF14.639125373760793
aF14.639125373760793
aF14.639125373760793
aF14.639125373760793
aF14.639125373760793
aF14.639125373760793
aF14.639125373760793
aF14.639125373760793
aF14.639125373760793
aF14.639131432071066
aF14.639151811773909
aF14.639199042483922
aF14.63930017216786
aF14.639490685228411
aF14.63981059748871
aF14.640303515706941
aF14.641016876144231
aF14.642002262978245
aF14.643315722128012
aF14.64501812480968
aF14.647175610182684
aF14.6498601192365
aF14.653150025831781
aF14.657130868257795
aF14.661896182201609
aF14.667548431798817
aF14.674200027911855
aF14.681974410067319
aF14.691007147917427
aF14.701446985883992
aF14.713456705530524
aF14.72721360722046
aF14.742909307275523
aF14.760748400437226
aF14.780945344688336
aF14.803718692787472
aF14.829281556056628
aF14.857827028126366
aF14.889507392881203
aF14.924406572671568
aF14.9625067876127
aF15.003653021083352
aF15.047522330951205
aF15.09360803873021
aF15.141229101766017
aF15.189570404473326
aF15.237750487692974
aF15.284903190529965
aF15.330254408774879
aF15.37317778101832
aF15.41322164939155
aF15.450109002251645
aF15.48371809556686
aF15.514052990328464
aF15.541211673388348
aF15.565356692108882
aF15.586690692674889
aF15.60543746544806
aF15.621828087894256
aF15.636091315739872
aF15.648447281080538
aF15.65910364006879
aF15.668253464180367
aF15.67607432920841
aF15.682728198233086
aF15.688361809966764
aF15.693107372076927
aF15.697083424030838
aF15.700395780383111
aF15.703138497695328
aF15.705394830187021
aF15.70723815372868
aF15.708732847135648
aF15.70993512555081
aF15.710893824192887
aF15.711651132723887
aF15.712243281524566
aF15.712701181636856
aF15.713051020266128
aF15.713314813631081
aF15.7135109185605
aF15.713654503372332
aF15.713757977002182
aF15.713831373342115
aF15.713882687145409
aF15.713918162366337
aF15.713942544945592
aF15.713959321771371
aF15.713970961970245
aF15.713979156213217
aF15.714001556414171
aF15.714001556414171
aF15.714001556414164
aF15.714001556414164
aF15.714001556414164
aF15.714001556414164
aF15.714001556414164
aF15.714001556414164
aF15.714001556414164
aF15.714001556414164
aF15.714001556414164
aF15.714001556414164
aF15.714001556414164
aF15.714001556414164
aF15.714001556414164
aF15.714001556414164
aF15.714001556414164
aF15.714001556414164
aF15.714001556414164
aF15.714001556414164
aF15.714001556414164
aF15.714001556414164
aF15.714001556414164
aF15.714001556414164
aF15.714001556414164
aF15.714001556414164
aF15.714001556414164
aF15.714001556414164
aF15.714001556414164
aF15.714001556414164
aF15.714001556414164
aF15.714001556414164
aF15.714001556414164
aF15.714001556414164
aF15.714001556414164
aF15.714001556414164
aF15.714001556414164
aF15.714001556414164
aF15.714001556414164
aF15.714001556414164
aF15.714001556414164
aF15.714001556414164
asS'theta'
p620
(lp621
I0
aF-5.916519358720351e-16
aF-5.916519358720351e-16
aF-5.916519358720351e-16
aF-5.916519358720351e-16
aF-5.916519358720351e-16
aF-5.916519358720351e-16
aF-5.916519358720351e-16
aF-5.916519358720351e-16
aF-5.916519358720351e-16
aF-5.916519358720351e-16
aF-5.916519358720351e-16
aF-5.916519358720351e-16
aF-5.916519358720351e-16
aF-5.916519358720351e-16
aF-5.916519358720351e-16
aF-5.916519358720351e-16
aF-5.916519358720351e-16
aF-5.916519358720351e-16
aF-5.916519358720351e-16
aF-5.916519358720351e-16
aF-5.916519358720351e-16
aF-5.916519358720351e-16
aF-5.916519358720351e-16
aF-5.916519358720351e-16
aF-5.916519358720351e-16
aF-5.916519358720351e-16
aF-5.916519358720351e-16
aF-5.916519358720351e-16
aF-5.916519358720351e-16
aF-5.916519358720351e-16
aF-5.916519358720351e-16
aF-5.916519358720351e-16
aF-5.916519358720351e-16
aF-5.916519358720351e-16
aF-5.916519358720351e-16
aF-5.916519358720351e-16
aF-5.916519358720351e-16
aF-5.916519358720351e-16
aF-5.916519358720351e-16
aF-5.916519358720351e-16
aF-5.916519358720351e-16
aF-5.916519358720351e-16
aF-5.916519358720351e-16
aF-5.916519358720351e-16
aF-5.916519358720351e-16
aF-5.916519358720351e-16
aF-5.916519358720351e-16
aF-5.916519358720351e-16
aF-5.916519358720351e-16
aF-5.916519358720351e-16
aF-5.916519358720351e-16
aF-5.916519358720351e-16
aF-5.916519358720351e-16
aF-5.916519358720351e-16
aF-5.916519358720351e-16
aF-5.916519358720351e-16
aF-5.916519358720351e-16
aF-5.916519358720351e-16
aF-5.916519358720351e-16
aF-5.916519358720351e-16
aF-5.916519358720351e-16
aF-5.916519358720351e-16
aF-5.916519358720351e-16
aF-5.916519358720351e-16
aF-5.916519358720351e-16
aF-5.916519358720351e-16
aF-5.916519358720351e-16
aF-5.916519358720351e-16
aF-5.916519358720351e-16
aF-5.916519358720351e-16
aF-5.916519358720351e-16
aF-5.916519358720351e-16
aF-5.916519358720351e-16
aF-5.916519358720351e-16
aF-5.916519358720351e-16
aF-5.916519358720351e-16
aF-1.8571229144482237e-06
aF-8.104365879455138e-06
aF-2.2582701342313145e-05
aF-5.358406057499451e-05
aF-0.00011198803732896709
aF-0.000210066990406009
aF-0.00036120136275187965
aF-0.0005799583267629576
aF-0.000882197318259365
aF-0.0012851772014156914
aF-0.001807682493670392
aF-0.002470178633667737
aF-0.00329500127060459
aF-0.004306582994966014
aF-0.0055317206054525695
aF-0.00699988583753466
aF-0.008743581929039974
aF-0.010798747024429343
aF-0.013205202663910584
aF-0.016007140649075945
aF-0.01925363320937403
aF-0.022999137839026226
aF-0.027303946935308
aF-0.03223450012661842
aF-0.037863429940247245
aF-0.04426914534768955
aF-0.05153467111382243
aF-0.059745359052086944
aF-0.0689849909380249
aF-0.07932975073217022
aF-0.09083964553301863
aF-0.10354732939765954
aF-0.11744505566336905
aF-0.13247165048157397
aF-0.14850265866724738
aF-0.16534746386661384
aF-0.18275638796564303
aF-0.2004382282882367
aF-0.21808525815076074
aF-0.23540015983675106
aF-0.2521190857416723
aF-0.2680270006094419
aF-0.28296431796741317
aF-0.29682615809168866
aF-0.30955664962798984
aF-0.3211407139031863
aF-0.3315952071549558
aF-0.34096059758739267
aF-0.3492937672959303
aF-0.35666212835187644
aF-0.3631390102077729
aF-0.36880016433326474
aF-0.3737211953257841
aF-0.377975731388379
aF-0.38163416914159193
aF-0.38476285571037916
aF-0.38742359848276503
aF-0.3896734170637696
aF-0.39156447189258986
aF-0.39314411986510045
aF-0.39445505962510496
aF-0.3955355385909081
aF-0.39641960087854017
aF-0.39713736059845123
aF-0.3977152889714357
aF-0.3981765066734981
aF-0.39854107504011554
aF-0.3988262814347556
aF-0.3990469153576492
aF-0.39921553283405947
aF-0.3993427073249597
aF-0.3994372658348479
aF-0.39950650897330103
aF-0.39955641336431386
aF-0.39959181413513695
aF-0.39961656515731525
aF-0.3996336770636279
aF-0.3996454385667396
aF-0.39965353138493853
aF-0.3996591464538364
aF-0.39966309927172766
aF-0.3996739050224242
aF-0.3996739050224253
aF-0.3996739050224239
aF-0.3996739050224239
aF-0.3996739050224239
aF-0.3996739050224239
aF-0.3996739050224239
aF-0.3996739050224239
aF-0.3996739050224239
aF-0.3996739050224239
aF-0.3996739050224239
aF-0.3996739050224239
aF-0.3996739050224239
aF-0.3996739050224239
aF-0.3996739050224239
aF-0.3996739050224239
aF-0.3996739050224239
aF-0.3996739050224239
aF-0.3996739050224239
aF-0.3996739050224239
aF-0.3996739050224239
aF-0.3996739050224239
aF-0.3996739050224239
aF-0.3996739050224239
aF-0.3996739050224239
aF-0.3996739050224239
aF-0.3996739050224239
aF-0.3996739050224239
aF-0.3996739050224239
aF-0.3996739050224239
aF-0.3996739050224239
aF-0.3996739050224239
aF-0.3996739050224239
aF-0.3996739050224239
aF-0.3996739050224239
aF-0.3996739050224239
aF-0.3996739050224239
aF-0.3996739050224239
aF-0.3996739050224239
aF-0.3996739050224239
aF-0.3996739050224239
aF-0.3996739050224239
asS'k'
p622
F127.33
sS'sigma'
p623
(lp624
F166588424.74198288
aF166588424.74198285
aF166588424.74198285
aF166588424.74198285
aF166588424.74198285
aF166588424.74198285
aF166588424.74198285
aF166588424.74198285
aF166588424.74198285
aF166588424.74198285
aF166588424.74198285
aF166588424.74198285
aF166588424.74198285
aF166588424.74198285
aF166588424.74198285
aF166588424.74198285
aF166588424.74198285
aF166588424.74198285
aF166588424.74198285
aF166588424.74198285
aF166588424.74198285
aF166588424.74198285
aF166588424.74198285
aF166588424.74198285
aF166588424.74198285
aF166588424.74198285
aF166588424.74198285
aF166588424.74198285
aF166588424.74198285
aF166588424.74198285
aF166588424.74198285
aF166588424.74198285
aF166588424.74198285
aF166588424.74198285
aF166588424.74198285
aF166588424.74198285
aF166588424.74198285
aF166588424.74198285
aF166588424.74198285
aF166588424.74198285
aF166588424.74198285
aF166588424.74198285
aF166588424.74198285
aF166588424.74198285
aF166588424.74198285
aF166588424.74198285
aF166588424.74198285
aF166588424.74198285
aF166588424.74198285
aF166588424.74198285
aF166588424.74198285
aF166588424.74198285
aF166588424.74198285
aF166588424.74198285
aF166588424.74198285
aF166588424.74198285
aF166588424.74198285
aF166588424.74198285
aF166588424.74198285
aF166588424.74198285
aF166588424.74198285
aF166588424.74198285
aF166588424.74198285
aF166588424.74198285
aF166588424.74198285
aF166588424.74198285
aF166588424.74198285
aF166588424.74198285
aF166588424.74198285
aF166588424.74198285
aF166588424.74198285
aF166588424.74198285
aF166588424.74198285
aF166588424.74198285
aF166588424.74198285
aF166588424.74198285
aF166588424.74198285
aF166587885.0266533
aF166586069.47228834
aF166581861.90371922
aF166572852.93449193
aF166555882.18539795
aF166527386.97897002
aF166483487.4818088
aF166419967.51339164
aF166332249.12709314
aF166215368.69633648
aF166063949.91750133
aF165872171.4148194
aF165633728.2263827
aF165341787.07808617
aF164988935.6620322
aF164567126.4461258
aF164067616.00987723
aF163480901.6520683
aF162796658.1937147
aF162003679.6992914
aF161089833.52693817
aF160042038.0484793
aF158846280.99214083
aF157487703.14177528
aF155950782.47756416
aF154219666.76435745
aF152278717.05264744
aF150113337.34824127
aF147711169.76655653
aF145063716.99378705
aF142168395.75478485
aF139030905.35010034
aF135667606.17188942
aF132107376.33558027
aF128392248.5670743
aF124576178.11297823
aF120721675.39229746
aF116894697.25776708
aF113158835.9152022
aF109570107.20751528
aF106173365.32195537
aF103000745.31032203
aF100071915.87229927
aF97395568.64358197
aF94971513.64528708
aF92792883.72948495
aF90848142.08144687
aF89122752.61905335
aF87600484.38587524
aF86264381.41248831
aF85097454.19620262
aF84083152.87627977
aF83205676.09634571
aF82450159.90216143
aF81802781.16404124
aF81250801.38866526
aF80782569.82412352
aF80387499.41063295
aF80056025.14765774
aF79779551.55260703
aF79550393.81833231
aF79361715.82019444
aF79207467.11001834
aF79082320.33624475
aF78981610.0526963
aF78901273.55426279
aF78837794.15788706
aF78788147.19706348
aF78749748.89466906
aF78720408.2079677
aF78698281.69554333
aF78681831.44331494
aF78669786.12194932
aF78661105.34944518
aF78654947.67732243
aF78650642.55138873
aF78647666.20567295
aF78645620.50319538
aF78644212.91454157
aF78643236.28798726
aF78642548.77884668
aF78640669.35866679
aF78640669.35866676
aF78640669.35866685
aF78640669.3586668
aF78640669.35866682
aF78640669.35866684
aF78640669.35866682
aF78640669.35866684
aF78640669.35866682
aF78640669.35866684
aF78640669.35866682
aF78640669.35866684
aF78640669.35866682
aF78640669.35866684
aF78640669.35866682
aF78640669.35866684
aF78640669.35866682
aF78640669.35866684
aF78640669.35866682
aF78640669.35866684
aF78640669.35866682
aF78640669.35866684
aF78640669.35866682
aF78640669.35866684
aF78640669.35866682
aF78640669.35866684
aF78640669.35866682
aF78640669.35866684
aF78640669.35866682
aF78640669.35866684
aF78640669.35866682
aF78640669.35866684
aF78640669.35866682
aF78640669.35866684
aF78640669.35866682
aF78640669.35866684
aF78640669.35866682
aF78640669.35866684
aF78640669.35866682
aF78640669.35866684
aF78640669.35866682
aF78640669.35866684
asS'eps_t'
p625
(lp626
F0.04753134449696079
aF0.04753134449696079
aF0.04753134449696079
aF0.04753134449696079
aF0.04753134449696079
aF0.04753134449696079
aF0.04753134449696079
aF0.04753134449696079
aF0.04753134449696079
aF0.04753134449696079
aF0.04753134449696079
aF0.04753134449696079
aF0.04753134449696079
aF0.04753134449696079
aF0.04753134449696079
aF0.04753134449696079
aF0.04753134449696079
aF0.04753134449696079
aF0.04753134449696079
aF0.04753134449696079
aF0.04753134449696079
aF0.04753134449696079
aF0.04753134449696079
aF0.04753134449696079
aF0.04753134449696079
aF0.04753134449696079
aF0.04753134449696079
aF0.04753134449696079
aF0.04753134449696079
aF0.04753134449696079
aF0.04753134449696079
aF0.04753134449696079
aF0.04753134449696079
aF0.04753134449696079
aF0.04753134449696079
aF0.04753134449696079
aF0.04753134449696079
aF0.04753134449696079
aF0.04753134449696079
aF0.04753134449696079
aF0.04753134449696079
aF0.04753134449696079
aF0.04753134449696079
aF0.04753134449696079
aF0.04753134449696079
aF0.04753134449696079
aF0.04753134449696079
aF0.04753134449696079
aF0.04753134449696079
aF0.04753134449696079
aF0.04753134449696079
aF0.04753134449696079
aF0.04753134449696079
aF0.04753134449696079
aF0.04753134449696079
aF0.04753134449696079
aF0.04753134449696079
aF0.04753134449696079
aF0.04753134449696079
aF0.04753134449696079
aF0.04753134449696079
aF0.04753134449696079
aF0.04753134449696079
aF0.04753134449696079
aF0.04753134449696079
aF0.04753134449696079
aF0.04753134449696079
aF0.04753134449696079
aF0.04753134449696079
aF0.04753134449696079
aF0.04753134449696079
aF0.04753134449696079
aF0.04753134449696079
aF0.04753134449696079
aF0.04753134449696079
aF0.04753134449696079
aF0.04753134449696079
aF0.04753115625860847
aF0.047530523034307916
aF0.04752905548673443
aF0.047525913069161825
aF0.04751999275899526
aF0.04751004990856457
aF0.04749472665638893
aF0.04747254327911168
aF0.04744188652299457
aF0.047400997399792186
aF0.047347956587394616
aF0.04728066630679517
aF0.047196828023500524
aF0.047093915439854334
aF0.046969142227237436
aF0.046819423900536734
aF0.04664133321380056
aF0.046431048498624186
aF0.04618429453197292
aF0.04589627589410778
aF0.0455616034941226
aF0.045174216205237934
aF0.04472730166780858
aF0.04421322371443162
aF0.0436234691143556
aF0.04294863407818123
aF0.04217848176419239
aF0.041302115863329485
aF0.040308330640822405
aF0.039186209828099575
aF0.037926045520158824
aF0.03652061752460636
aF0.03496679441341074
aF0.03326728081189146
aF0.03143216509616801
aF0.029479793521882937
aF0.027436521534643675
aF0.025335140549457406
aF0.023212186773565204
aF0.021104710917026946
aF0.019047223791391538
aF0.01706938328823431
aF0.0151946747968292
aF0.01344003567832237
aF0.011816193676794316
aF0.010328440170782193
aF0.008977596406025887
aF0.007761001715806677
aF0.0066734223515313345
aF0.005707832889621275
aF0.004856057034538563
aF0.00410927443132974
aF0.0034584095230576865
aF0.002894421570042408
aF0.0024085145639588237
aF0.0019922837517364353
aF0.0016378128979985178
aF0.0013377338264847025
aF0.0010852574547273674
aF0.0008741835661476108
aF0.0006988949552825228
aF0.0005543402994823336
aF0.0004360091038447985
aF0.00033990128380142446
aF0.00026249334499022143
aF0.00020070265342247065
aF0.00015185092854757184
aF0.00011362781257725905
aF8.405515240317743e-05
aF6.1452462367522e-05
aF4.4403909937748815e-05
aF3.172708269307831e-05
aF2.2443763618740497e-05
aF1.575297432904236e-05
aF1.1006622318649255e-05
aF7.688086939870474e-06
aF5.393756630464916e-06
aF3.8167871153251755e-06
aF2.7317058546500502e-06
aF1.97883765166404e-06
aF1.4488428128661607e-06
aF7.090724559702562e-18
aF7.090724559702562e-18
aF7.090724559702562e-18
aF7.090724559702562e-18
aF7.090724559702562e-18
aF7.090724559702562e-18
aF7.090724559702562e-18
aF7.090724559702562e-18
aF7.090724559702562e-18
aF7.090724559702562e-18
aF7.090724559702562e-18
aF7.090724559702562e-18
aF7.090724559702562e-18
aF7.090724559702562e-18
aF7.090724559702562e-18
aF7.090724559702562e-18
aF7.090724559702562e-18
aF7.090724559702562e-18
aF7.090724559702562e-18
aF7.090724559702562e-18
aF7.090724559702562e-18
aF7.090724559702562e-18
aF7.090724559702562e-18
aF7.090724559702562e-18
aF7.090724559702562e-18
aF7.090724559702562e-18
aF7.090724559702562e-18
aF7.090724559702562e-18
aF7.090724559702562e-18
aF7.090724559702562e-18
aF7.090724559702562e-18
aF7.090724559702562e-18
aF7.090724559702562e-18
aF7.090724559702562e-18
aF7.090724559702562e-18
aF7.090724559702562e-18
aF7.090724559702562e-18
aF7.090724559702562e-18
aF7.090724559702562e-18
aF7.090724559702562e-18
aF7.090724559702562e-18
aF7.090724559702562e-18
as.