(lp0
cdeap.creator
Individual
p1
((lp2
F0.7343487617571414
aF-0.4438998393785292
aF0.7651496225883259
aF0.03932808521162681
aF0.7105717349778697
aF0.34482368194952384
aF0.8104522463345506
aF-0.5660636876956435
aF343.26553471635526
atp3
Rp4
(dp5
S'fitness'
p6
ccopy_reg
_reconstructor
p7
(cdeap.creator
FitnessMin
p8
c__builtin__
object
p9
Ntp10
Rp11
(dp12
S'crowding_dist'
p13
Finf
sS'wvalues'
p14
(cnumpy.core.multiarray
scalar
p15
(cnumpy
dtype
p16
(S'f8'
p17
I0
I1
tp18
Rp19
(I3
S'<'
p20
NNNI-1
I-1
I0
tp21
bS'\xc1\xa1^\xa4\x19|\xee?'
p22
tp23
Rp24
g15
(g19
S'\xa1?\x10\xf0j]\xfa\xbf'
p25
tp26
Rp27
tp28
sbsbag1
((lp29
F0.7341330307588705
aF-0.4419624894872022
aF0.7655806971434347
aF0.0406027604573225
aF0.6977741698299406
aF0.4987175673977234
aF0.8105509240050778
aF-0.5667877495556872
aF344.59006436913853
atp30
Rp31
(dp32
g6
g7
(g8
g9
Ntp33
Rp34
(dp35
g13
g15
(g19
S'\x00\x00\x00\x00\x00\x00\xf0\x7f'
p36
tp37
Rp38
sg14
(g15
(g19
S'Hc\x00\x14\xa3\xed\xec?'
p39
tp40
Rp41
g15
(g19
S'\xb9\xe2\x12}d\xe7\xfb\xbf'
p42
tp43
Rp44
tp45
sbsbag1
((lp46
F0.7341330307588705
aF-0.4419624894872022
aF0.7655806971434347
aF0.0406027604573225
aF0.6977741698299406
aF0.4987175673977234
aF0.8105509240050778
aF-0.5667877495556872
aF344.59006436913853
atp47
Rp48
(dp49
g6
g7
(g8
g9
Ntp50
Rp51
(dp52
g13
Finf
sg14
(g15
(g19
S'Hc\x00\x14\xa3\xed\xec?'
p53
tp54
Rp55
g15
(g19
S'\xb9\xe2\x12}d\xe7\xfb\xbf'
p56
tp57
Rp58
tp59
sbsbag1
((lp60
F0.7341330307588705
aF-0.4419624894872022
aF0.7655806971434347
aF0.0406027604573225
aF0.6977741698299406
aF0.4987175673977234
aF0.8105509240050778
aF-0.5667877495556872
aF344.59006436913853
atp61
Rp62
(dp63
g6
g7
(g8
g9
Ntp64
Rp65
(dp66
g13
g15
(g19
S'\x00\x00\x00\x00\x00\x00\x00\x00'
p67
tp68
Rp69
sg14
(g15
(g19
S'Hc\x00\x14\xa3\xed\xec?'
p70
tp71
Rp72
g15
(g19
S'\xb9\xe2\x12}d\xe7\xfb\xbf'
p73
tp74
Rp75
tp76
sbsbag1
((lp77
F0.7341330307588705
aF-0.4419624894872022
aF0.7655806971434347
aF0.0406027604573225
aF0.6977741698299406
aF0.4987175673977234
aF0.8105509240050778
aF-0.5667877495556872
aF343.3039288559818
atp78
Rp79
(dp80
g6
g7
(g8
g9
Ntp81
Rp82
(dp83
g13
g15
(g19
S'\xce`=\x8bqU\x8d?'
p84
tp85
Rp86
sg14
(g15
(g19
S'\x03\t\x00\x14\xa3\xed\xec?'
p87
tp88
Rp89
g15
(g19
S'\xf5C\x0b\xf9\x03P\xfb\xbf'
p90
tp91
Rp92
tp93
sbsbag1
((lp94
F0.7341330307588705
aF-0.4419624894872022
aF0.7655806971434347
aF0.0406027604573225
aF0.6977741698299406
aF0.4987175673977234
aF0.8105509240050778
aF-0.5667877495556872
aF343.3039288559818
atp95
Rp96
(dp97
g6
g7
(g8
g9
Ntp98
Rp99
(dp100
g13
g15
(g19
S'\x02\xbf\x91\xef\x1d\x03o?'
p101
tp102
Rp103
sg14
(g15
(g19
S'\x03\t\x00\x14\xa3\xed\xec?'
p104
tp105
Rp106
g15
(g19
S'\xf5C\x0b\xf9\x03P\xfb\xbf'
p107
tp108
Rp109
tp110
sbsbag1
((lp111
F0.7341330307588705
aF-0.4419624894872022
aF0.7655806971434347
aF0.0406027604573225
aF0.6977741698299406
aF0.4987175673977234
aF0.8105509240050778
aF-0.5667877495556872
aF343.3039288559818
atp112
Rp113
(dp114
g6
g7
(g8
g9
Ntp115
Rp116
(dp117
g13
g15
(g19
S'\x00\x00\x00\x00\x00\x00\x00\x00'
p118
tp119
Rp120
sg14
(g15
(g19
S'\x03\t\x00\x14\xa3\xed\xec?'
p121
tp122
Rp123
g15
(g19
S'\xf5C\x0b\xf9\x03P\xfb\xbf'
p124
tp125
Rp126
tp127
sbsbag1
((lp128
F0.7341330307588705
aF-0.4419624894872022
aF0.7655806971434347
aF0.0406027604573225
aF0.6977741698299406
aF0.4987175673977234
aF0.8105509240050778
aF-0.5667877495556872
aF343.3039288559818
atp129
Rp130
(dp131
g6
g7
(g8
g9
Ntp132
Rp133
(dp134
g13
g15
(g19
S'\x00\x00\x00\x00\x00\x00\x00\x00'
p135
tp136
Rp137
sg14
(g15
(g19
S'\x03\t\x00\x14\xa3\xed\xec?'
p138
tp139
Rp140
g15
(g19
S'\xf5C\x0b\xf9\x03P\xfb\xbf'
p141
tp142
Rp143
tp144
sbsbag1
((lp145
F0.7343762768972437
aF-0.4438998393785292
aF0.7655806971434347
aF0.040547955023967686
aF0.6977741698299406
aF0.4987175673977234
aF0.8104522463345506
aF-0.5667877495556872
aF343.26553471635526
atp146
Rp147
(dp148
g6
g7
(g8
g9
Ntp149
Rp150
(dp151
g13
g15
(g19
S'\xaa\xc8\xfb\x04\xdd\x89w?'
p152
tp153
Rp154
sg14
(g15
(g19
S'\x9e\xabCtm\xb6\xec?'
p155
tp156
Rp157
g15
(g19
S'?:\xc16\xee\x19\xfb\xbf'
p158
tp159
Rp160
tp161
sbsbag1
((lp162
F0.7343762768972437
aF-0.4438998393785292
aF0.7655806971434347
aF0.040547955023967686
aF0.6977741698299406
aF0.4987175673977234
aF0.8104522463345506
aF-0.5667877495556872
aF343.26553471635526
atp163
Rp164
(dp165
g6
g7
(g8
g9
Ntp166
Rp167
(dp168
g13
g15
(g19
S'\xa6\xbf\xf6\xf5V\x8bv?'
p169
tp170
Rp171
sg14
(g15
(g19
S'\x9e\xabCtm\xb6\xec?'
p172
tp173
Rp174
g15
(g19
S'?:\xc16\xee\x19\xfb\xbf'
p175
tp176
Rp177
tp178
sbsbag1
((lp179
F0.734570883464736
aF-0.4425688676215533
aF0.7655806971434347
aF0.0406027604573225
aF0.6978232881303145
aF0.503136145024176
aF0.8115784916712542
aF-0.5892499290959711
aF343.29464107282354
atp180
Rp181
(dp182
g6
g7
(g8
g9
Ntp183
Rp184
(dp185
g13
g15
(g19
S'\xd6\x88\x85[\xf9;\x8e?'
p186
tp187
Rp188
sg14
(g15
(g19
S'\xb1\x8cO\xc9a\x99\xec?'
p189
tp190
Rp191
g15
(g19
S'\xb0\x9dT\x00\x8d\x00\xfb\xbf'
p192
tp193
Rp194
tp195
sbsbag1
((lp196
F0.7338552735444942
aF-0.4419583379061558
aF0.7566969661848337
aF0.042162282245138495
aF0.6977741698299406
aF0.4822060219327793
aF0.8105509240050778
aF-0.566569088788161
aF343.2692805218284
atp197
Rp198
(dp199
g6
g7
(g8
g9
Ntp200
Rp201
(dp202
g13
g15
(g19
S'5\x8a\xdf\xfb8\xbc\x8a?'
p203
tp204
Rp205
sg14
(g15
(g19
S'\xe5\xbd\x15y;a\xec?'
p206
tp207
Rp208
g15
(g19
S'`O\xe8\x0c2\x99\xfa\xbf'
p209
tp210
Rp211
tp212
sbsbag1
((lp213
F0.7350894700085872
aF-0.4413754902859636
aF0.7655806971434347
aF0.0406027604573225
aF0.6978278176261684
aF0.4987175673977234
aF0.8115784916712542
aF-0.5892499290959711
aF343.204752647626
atp214
Rp215
(dp216
g6
g7
(g8
g9
Ntp217
Rp218
(dp219
g13
g15
(g19
S'\xd7\xca*\x12\xa6\x02\x83?'
p220
tp221
Rp222
sg14
(g15
(g19
S'\xad\xfbJ=\xd2J\xec?'
p223
tp224
Rp225
g15
(g19
S'\x16SEH\xd3\x91\xfa\xbf'
p226
tp227
Rp228
tp229
sbsbag1
((lp230
F0.7341330263852158
aF-0.44195842907375016
aF0.7566969661848337
aF0.04217555957788689
aF0.6977741698299406
aF0.4822060219327793
aF0.8105509240050778
aF-0.5667877495556872
aF343.78653364404977
atp231
Rp232
(dp233
g6
g7
(g8
g9
Ntp234
Rp235
(dp236
g13
g15
(g19
S'D\xf9-~\x04\xb6\xce?'
p237
tp238
Rp239
sg14
(g15
(g19
S'\xa0\xaa7\x95/\x10\xec?'
p240
tp241
Rp242
g15
(g19
S'\xd6\xfc\xa6\xa2\xc1b\xfa\xbf'
p243
tp244
Rp245
tp246
sbsbag1
((lp247
F0.7428415440440161
aF-0.47855121234737746
aF0.7555317368724666
aF0.2374673005708246
aF0.6910933747004853
aF0.539227103277426
aF0.8153580419283273
aF-0.5740821435269723
aF348.01710370635016
atp248
Rp249
(dp250
g6
g7
(g8
g9
Ntp251
Rp252
(dp253
g13
g15
(g19
S'\x18<\xdc\xde\x16\xe7\xd2?'
p254
tp255
Rp256
sg14
(g15
(g19
S'"+:_J\xbd\xeb?'
p257
tp258
Rp259
g15
(g19
S'\xe2|\xfb\xfffY\xf9\xbf'
p260
tp261
Rp262
tp263
sbsbag1
((lp264
F0.7428415440440161
aF-0.47855121234737746
aF0.7555317368724666
aF0.2374673005708246
aF0.6910933747004853
aF0.539227103277426
aF0.8153580419283273
aF-0.5740821435269723
aF348.01710370635016
atp265
Rp266
(dp267
g6
g7
(g8
g9
Ntp268
Rp269
(dp270
g13
g15
(g19
S'\xd28\xdf_\xe5b\x98?'
p271
tp272
Rp273
sg14
(g15
(g19
S'"+:_J\xbd\xeb?'
p274
tp275
Rp276
g15
(g19
S'\xe2|\xfb\xfffY\xf9\xbf'
p277
tp278
Rp279
tp280
sbsbag1
((lp281
F0.7445176800756339
aF-0.30161091177954913
aF0.7553265442059768
aF0.005142176179210017
aF0.6969376028461388
aF0.49011841192313954
aF0.8115530633344106
aF-0.5897705367123691
aF346.3381853202505
atp282
Rp283
(dp284
g6
g7
(g8
g9
Ntp285
Rp286
(dp287
g13
g15
(g19
S'\x82\xe6\xf1\xe1\x0b\x84\xd4?'
p288
tp289
Rp290
sg14
(g15
(g19
S'#c\xea(;v\xeb?'
p291
tp292
Rp293
g15
(g19
S'\xa4\x1e\n\x93\x93L\xe8\xbf'
p294
tp295
Rp296
tp297
sbsbag1
((lp298
F0.7445090834828251
aF-0.3123217889344392
aF0.7566969661848337
aF0.04217555957788689
aF0.6977741698299406
aF0.47810106585462914
aF0.8105509240050778
aF-0.5667877495556872
aF348.36407267590334
atp299
Rp300
(dp301
g6
g7
(g8
g9
Ntp302
Rp303
(dp304
g13
g15
(g19
S'\x14k\xed\xfb\xee>\xd1?'
p305
tp306
Rp307
sg14
(g15
(g19
S'\xe1>\xbe\xd8]M\xeb?'
p308
tp309
Rp310
g15
(g19
S'm>;\xe0\xf5D\xec\xbf'
p311
tp312
Rp313
tp314
sbsbag1
((lp315
F0.7445102361793068
aF-0.3108775210020606
aF0.7553265442059768
aF0.005142176179210017
aF0.6969376028461388
aF0.4890780028039034
aF0.8115530633344106
aF-0.5669984237581414
aF346.3381853202505
atp316
Rp317
(dp318
g6
g7
(g8
g9
Ntp319
Rp320
(dp321
g13
g15
(g19
S'\xc93\x8a\xd7y\x88\xa1?'
p322
tp323
Rp324
sg14
(g15
(g19
S'\x96\xb8u\t{\xec\xea?'
p325
tp326
Rp327
g15
(g19
S'\xa1\x028Y\xa7\xe4\xe8\xbf'
p328
tp329
Rp330
tp331
sbsbag1
((lp332
F0.7445102361793068
aF-0.3108775210020606
aF0.7553265442059768
aF0.005142176179210017
aF0.6969376028461388
aF0.4890780028039034
aF0.8115530633344106
aF-0.5669984237581414
aF346.3381853202505
atp333
Rp334
(dp335
g6
g7
(g8
g9
Ntp336
Rp337
(dp338
g13
g15
(g19
S'\xa6\x08\x16R\x1fA\x82?'
p339
tp340
Rp341
sg14
(g15
(g19
S'\x96\xb8u\t{\xec\xea?'
p342
tp343
Rp344
g15
(g19
S'\xa1\x028Y\xa7\xe4\xe8\xbf'
p345
tp346
Rp347
tp348
sbsbag1
((lp349
F0.7445102361793068
aF-0.28260412371897387
aF0.7553265442059768
aF0.005048434078827482
aF0.6969376028461388
aF0.48908983017940455
aF0.8115530633344106
aF-0.5669339688868594
aF348.9609663241513
atp350
Rp351
(dp352
g6
g7
(g8
g9
Ntp353
Rp354
(dp355
g13
g15
(g19
S'\x9a\xcb\xa6\xc8\x13\xc8\xaf?'
p356
tp357
Rp358
sg14
(g15
(g19
S'f~8\xe5K\xb1\xea?'
p359
tp360
Rp361
g15
(g19
S'J^\x87>\xe1\xa0\xe8\xbf'
p362
tp363
Rp364
tp365
sbsbag1
((lp366
F0.744532273962214
aF-0.10415136239533425
aF0.7570718986286057
aF0.0037335050730799915
aF0.6917082998934208
aF0.49270887854672113
aF0.8120624247468278
aF-0.5723683992748976
aF348.95029822606995
atp367
Rp368
(dp369
g6
g7
(g8
g9
Ntp370
Rp371
(dp372
g13
g15
(g19
S'\xe6\xddap\xf0!\xde?'
p373
tp374
Rp375
sg14
(g15
(g19
S'\xddz \\b@\xe9?'
p376
tp377
Rp378
g15
(g19
S'\x02\x0c\xad\xf0\x1b2\xe5\xbf'
p379
tp380
Rp381
tp382
sbsbag1
((lp383
F0.744532273962214
aF-0.10415136239533425
aF0.7570718986286057
aF0.0037335050730799915
aF0.6917082998934208
aF0.49224556437923705
aF0.8121244704753391
aF-0.5723585038420052
aF348.95029822606995
atp384
Rp385
(dp386
g6
g7
(g8
g9
Ntp387
Rp388
(dp389
g13
g15
(g19
S'\xcc\x18y;\xa8b\xdf?'
p390
tp391
Rp392
sg14
(g15
(g19
S'\xa5\x0c\x0f\xba\xaf?\xe9?'
p393
tp394
Rp395
g15
(g19
S'\xf8o\xf5p72\xe5\xbf'
p396
tp397
Rp398
tp399
sbsbag1
((lp400
F0.7445330759631088
aF-0.08484674043848658
aF0.7570718986286057
aF0.0037369330610546405
aF0.697703214677354
aF0.5371307945564413
aF0.8132952354033712
aF-0.5723585038420052
aF348.0793093424032
atp401
Rp402
(dp403
g6
g7
(g8
g9
Ntp404
Rp405
(dp406
g13
g15
(g19
S'x\x1dA\xadrN\xda?'
p407
tp408
Rp409
sg14
(g15
(g19
S'\xb7\xe9OV\xe3\x1c\x9d?'
p410
tp411
Rp412
g15
(g19
S'\t\xa3\x18\x88\xe7\x92\xe4\xbf'
p413
tp414
Rp415
tp416
sbsbag1
((lp417
F0.7447889424100682
aF-0.08006309333448718
aF0.7570547432663193
aF0.0037369330610546405
aF0.697863081464666
aF0.5371307945564413
aF0.8132952354033712
aF-0.572212190137236
aF348.0793093424032
atp418
Rp419
(dp420
g6
g7
(g8
g9
Ntp421
Rp422
(dp423
g13
g15
(g19
S'\xbf\x17U+-t\xa8?'
p424
tp425
Rp426
sg14
(g15
(g19
S'xEQ\xe1=d\x9b?'
p427
tp428
Rp429
g15
(g19
S'\x92o\xefK\x84\x0b\xe4\xbf'
p430
tp431
Rp432
tp433
sbsbag1
((lp434
F0.7445281735155145
aF-0.29466964793045985
aF0.7553299619517673
aF0.003474170446369801
aF0.692256394579567
aF0.5378762154097112
aF0.8120586636567247
aF-0.5954132344627923
aF375.1311949801128
atp435
Rp436
(dp437
g6
g7
(g8
g9
Ntp438
Rp439
(dp440
g13
g15
(g19
S'x^;\x01\xf6\x84\xdc?'
p441
tp442
Rp443
sg14
(g15
(g19
S'\x16\xd8tv"\x9f\x94?'
p444
tp445
Rp446
g15
(g19
S'\xbf\x96\xf0Q\xe0$\xe4\xbf'
p447
tp448
Rp449
tp450
sbsbag1
((lp451
F0.744532273962214
aF-0.10415136239533425
aF0.7567116799611773
aF0.002771485831437874
aF0.6977288200543418
aF0.49291562885169704
aF0.8121715056157323
aF-0.5722714165899865
aF348.95029822606995
atp452
Rp453
(dp454
g6
g7
(g8
g9
Ntp455
Rp456
(dp457
g13
g15
(g19
S'\x8aV\xea\xb6\xa7\xaf\xaf?'
p458
tp459
Rp460
sg14
(g15
(g19
S'\xf9P4\xbdl\x9f\x90?'
p461
tp462
Rp463
g15
(g19
S'pw#\x02K6\xe0\xbf'
p464
tp465
Rp466
tp467
sbsbag1
((lp468
F0.7445343309963741
aF-0.30161091177954913
aF0.7552672064298086
aF0.005162182099254989
aF0.6968892341321206
aF0.49011841192313954
aF0.8115530633344106
aF-0.5897705367123691
aF346.3381853202505
atp469
Rp470
(dp471
g6
g7
(g8
g9
Ntp472
Rp473
(dp474
g13
g15
(g19
S'B\xa5\xb2\xdf\xda\xb2\xac?'
p475
tp476
Rp477
sg14
(g15
(g19
S'\x1a\xa0\x08\xb5)\x90\x88?'
p478
tp479
Rp480
g15
(g19
S'\xbd\x1f\xed\x1erm\xe3\xbf'
p481
tp482
Rp483
tp484
sbsbag1
((lp485
F0.7445322842081249
aF-0.08484674043848658
aF0.7570718986286057
aF0.0037335050730799915
aF0.6978314734490105
aF0.5371307945564413
aF0.8121244704753391
aF-0.6623990189788389
aF374.78620344450593
atp486
Rp487
(dp488
g6
g7
(g8
g9
Ntp489
Rp490
(dp491
g13
g15
(g19
S'^\xc7`l\xf0\xbb\x9f?'
p492
tp493
Rp494
sg14
(g15
(g19
S'\x9dt\x96\x1a\xc2\x83v?'
p495
tp496
Rp497
g15
(g19
S'\xa4\xd8\xc1\x1e\xb8c\xdd\xbf'
p498
tp499
Rp500
tp501
sbsbag1
((lp502
F0.744532273962214
aF-0.10415136239533425
aF0.7570718986286057
aF0.0037335050730799915
aF0.6917082998934208
aF0.5106999384676153
aF0.8127425262770754
aF-0.5723682320902042
aF348.95029822606995
atp503
Rp504
(dp505
g6
g7
(g8
g9
Ntp506
Rp507
(dp508
g13
g15
(g19
S'\xbe\x977\x8c\xe3 \xc7?'
p509
tp510
Rp511
sg14
(g15
(g19
S'"\x8c\xcc5%[s?'
p512
tp513
Rp514
g15
(g19
S'\x83\x95cq\xb2\xad\xdd\xbf'
p515
tp516
Rp517
tp518
sbsbag1
((lp519
F0.7444447848910305
aF-0.06565851643101861
aF0.7570550449572264
aF0.0037335050730799915
aF0.6978314734490105
aF0.5526999018648848
aF0.8105799345293677
aF-0.6623990189788389
aF350.8100276602374
atp520
Rp521
(dp522
g6
g7
(g8
g9
Ntp523
Rp524
(dp525
g13
g15
(g19
S"'Z\xf4\x14\\\x8e\x96?"
p526
tp527
Rp528
sg14
(g15
(g19
S'U\xb4\\]\x17\xcdr?'
p529
tp530
Rp531
g15
(g19
S'\xdc8d\x8e5-\xdb\xbf'
p532
tp533
Rp534
tp535
sbsbag1
((lp536
F0.7444447848910305
aF-0.06565851643101861
aF0.7570550449572264
aF0.0037335050730799915
aF0.6978314734490105
aF0.5526999018648848
aF0.8105799345293677
aF-0.6623990189788389
aF350.8100276602374
atp537
Rp538
(dp539
g6
g7
(g8
g9
Ntp540
Rp541
(dp542
g13
g15
(g19
S'\x00\x00\x00\x00\x00\x00\x00\x00'
p543
tp544
Rp545
sg14
(g15
(g19
S'U\xb4\\]\x17\xcdr?'
p546
tp547
Rp548
g15
(g19
S'\xdc8d\x8e5-\xdb\xbf'
p549
tp550
Rp551
tp552
sbsbag1
((lp553
F0.7444447848910305
aF-0.06565851643101861
aF0.7570550449572264
aF0.0037335050730799915
aF0.6978314734490105
aF0.5526999018648848
aF0.8105799345293677
aF-0.6623990189788389
aF350.8100276602374
atp554
Rp555
(dp556
g6
g7
(g8
g9
Ntp557
Rp558
(dp559
g13
g15
(g19
S'i\x04\n\x80\xd2k\x8a?'
p560
tp561
Rp562
sg14
(g15
(g19
S'U\xb4\\]\x17\xcdr?'
p563
tp564
Rp565
g15
(g19
S'\xdc8d\x8e5-\xdb\xbf'
p566
tp567
Rp568
tp569
sbsbag1
((lp570
F0.7444893620152846
aF-0.44196232683912823
aF0.7552535690725816
aF0.040511203158695906
aF0.6919070851532442
aF0.49859650346436996
aF0.8062356387802109
aF-0.5669835553000506
aF320.7743779215001
atp571
Rp572
(dp573
g6
g7
(g8
g9
Ntp574
Rp575
(dp576
g13
g15
(g19
S'\xf2d\x07M\xc4\xea\x9c?'
p577
tp578
Rp579
sg14
(g15
(g19
S'\x1a\xc0K\xfa\xf7\x02\xf2<'
p580
tp581
Rp582
g15
(g19
S'\xb7\xd1\xe8\x16\x86\xa1\xd6\xbf'
p583
tp584
Rp585
tp586
sbsbag1
((lp587
F0.7445102361793068
aF-0.4419581727197272
aF0.7552535690725816
aF0.011252656444892171
aF0.6919070851532442
aF0.4890780028039034
aF0.8062356387802109
aF-0.5669835553000506
aF320.7743779215001
atp588
Rp589
(dp590
g6
g7
(g8
g9
Ntp591
Rp592
(dp593
g13
g15
(g19
S'\x103\x0b\xa7e_\xba?'
p594
tp595
Rp596
sg14
(g15
(g19
S'Vc\xc1\xbb\xa8\xc5\xe0<'
p597
tp598
Rp599
g15
(g19
S'\xa4)\x00\xf9\x7f\xba\xd5\xbf'
p600
tp601
Rp602
tp603
sbsbag1
((lp604
F0.7445102361793068
aF-0.4419581727197272
aF0.7552535690725816
aF0.011252656444892171
aF0.6919070851532442
aF0.4890780028039034
aF0.8062356387802109
aF-0.5669835553000506
aF320.7743779215001
atp605
Rp606
(dp607
g6
g7
(g8
g9
Ntp608
Rp609
(dp610
g13
g15
(g19
S'\x00\x00\x00\x00\x00\x00\x00\x00'
p611
tp612
Rp613
sg14
(g15
(g19
S'Vc\xc1\xbb\xa8\xc5\xe0<'
p614
tp615
Rp616
g15
(g19
S'\xa4)\x00\xf9\x7f\xba\xd5\xbf'
p617
tp618
Rp619
tp620
sbsbag1
((lp621
F0.7445102361793068
aF-0.4419581727197272
aF0.7552535690725816
aF0.011252656444892171
aF0.6919070851532442
aF0.4890780028039034
aF0.8062356387802109
aF-0.5669835553000506
aF320.7743779215001
atp622
Rp623
(dp624
g6
g7
(g8
g9
Ntp625
Rp626
(dp627
g13
g15
(g19
S'\xae\x9a\xa2\x14m\x86q?'
p628
tp629
Rp630
sg14
(g15
(g19
S'Vc\xc1\xbb\xa8\xc5\xe0<'
p631
tp632
Rp633
g15
(g19
S'\xa4)\x00\xf9\x7f\xba\xd5\xbf'
p634
tp635
Rp636
tp637
sbsbag1
((lp638
F0.7436305713622466
aF-0.47340526845494074
aF0.9660389945558425
aF0.04054877162081891
aF0.6886066359949443
aF0.5029408299852342
aF0.8279389690370623
aF-0.3528985994508648
aF343.29469880434357
atp639
Rp640
(dp641
g6
g7
(g8
g9
Ntp642
Rp643
(dp644
g13
Finf
sg14
(g15
(g19
S'\xb0x1\x1a)\xf3\xd2<'
p645
tp646
Rp647
F-0.0
tp648
sbsbag1
((lp649
F0.7431342719938717
aF-0.4781144936613041
aF0.9660389945558425
aF0.04054877162081891
aF0.6597833424981145
aF0.5038369516153745
aF0.8274388559287073
aF-0.5471122229140448
aF321.0608019640124
atp650
Rp651
(dp652
g6
g7
(g8
g9
Ntp653
Rp654
(dp655
g13
Finf
sg14
(g15
(g19
S'\xa8\xde}\xff\xe8\xbb\xd2<'
p656
tp657
Rp658
F-0.0
tp659
sbsbag1
((lp660
F0.7431342719938717
aF-0.4781144936613041
aF0.9660389945558425
aF0.04054877162081891
aF0.6597833424981145
aF0.5038369516153745
aF0.8274388559287073
aF-0.5471122229140448
aF321.0608019640124
atp661
Rp662
(dp663
g6
g7
(g8
g9
Ntp664
Rp665
(dp666
g13
g15
(g19
S'\x00\x00\x00\x00\x00\x00\xf0\x7f'
p667
tp668
Rp669
sg14
(g15
(g19
S'\xa8\xde}\xff\xe8\xbb\xd2<'
p670
tp671
Rp672
F-0.0
tp673
sbsba.