(lp0
cdeap.creator
Individual
p1
((lp2
F0.7231642016242017
aF-0.7574613084420805
aF0.7584380335852535
aF0.06584401410927393
aF0.43044770745881145
aF0.3245503135332057
aF0.8173346530191063
aF-0.09255036273715617
aF358.66848541986957
atp3
Rp4
(dp5
S'fitness'
p6
ccopy_reg
_reconstructor
p7
(cdeap.creator
FitnessMin
p8
c__builtin__
object
p9
Ntp10
Rp11
(dp12
S'crowding_dist'
p13
cnumpy.core.multiarray
scalar
p14
(cnumpy
dtype
p15
(S'f8'
p16
I0
I1
tp17
Rp18
(I3
S'<'
p19
NNNI-1
I-1
I0
tp20
bS'\x00\x00\x00\x00\x00\x00\xf0\x7f'
p21
tp22
Rp23
sS'wvalues'
p24
(g14
(g18
S'Z\xa1&\\\x84P\xe3?'
p25
tp26
Rp27
g14
(g18
S'*\x19i\xc3\x80C\xf5\xbf'
p28
tp29
Rp30
tp31
sbsbag1
((lp32
F0.7231642016242017
aF-0.7574613084420805
aF0.7584380335852535
aF0.06584401410927393
aF0.43044770745881145
aF0.3245503135332057
aF0.8173346530191063
aF-0.09255036273715617
aF358.66848541986957
atp33
Rp34
(dp35
g6
g7
(g8
g9
Ntp36
Rp37
(dp38
g13
g14
(g18
S'\x00\x00\x00\x00\x00\x00\x00\x00'
p39
tp40
Rp41
sg24
(g14
(g18
S'Z\xa1&\\\x84P\xe3?'
p42
tp43
Rp44
g14
(g18
S'*\x19i\xc3\x80C\xf5\xbf'
p45
tp46
Rp47
tp48
sbsbag1
((lp49
F0.7231642016242017
aF-0.7574613084420805
aF0.7584380335852535
aF0.06584401410927393
aF0.43044770745881145
aF0.3245503135332057
aF0.8173346530191063
aF-0.09255036273715617
aF358.66848541986957
atp50
Rp51
(dp52
g6
g7
(g8
g9
Ntp53
Rp54
(dp55
g13
Finf
sg24
(g14
(g18
S'Z\xa1&\\\x84P\xe3?'
p56
tp57
Rp58
g14
(g18
S'*\x19i\xc3\x80C\xf5\xbf'
p59
tp60
Rp61
tp62
sbsbag1
((lp63
F0.7231642016242017
aF-0.7573001435812865
aF0.7584380335852535
aF0.06584401410927393
aF0.43044770745881145
aF0.3245503135332057
aF0.8173346530191063
aF-0.09255036273715617
aF352.0513692671472
atp64
Rp65
(dp66
g6
g7
(g8
g9
Ntp67
Rp68
(dp69
g13
g14
(g18
S'\x9e\xf9\xc7\x0e\xe1\x01\x91?'
p70
tp71
Rp72
sg24
(g14
(g18
S'8Y\x98\xd7wP\xe3?'
p73
tp74
Rp75
g14
(g18
S',\xa2u6\x1e;\xf5\xbf'
p76
tp77
Rp78
tp79
sbsbag1
((lp80
F0.7231642016242017
aF-0.6922313173375192
aF0.7584380335852535
aF0.06584401410927393
aF0.43044770745881145
aF0.3245503135332057
aF0.8173346530191063
aF-0.09255036273715617
aF358.5353290063799
atp81
Rp82
(dp83
g6
g7
(g8
g9
Ntp84
Rp85
(dp86
g13
g14
(g18
S'\xd5\x04"F4\xa5\xcb?'
p87
tp88
Rp89
sg24
(g14
(g18
S'q\x149\t\x99H\xe3?'
p90
tp91
Rp92
g14
(g18
S'\xad\xa9\xbe\xecf\x97\xf4\xbf'
p93
tp94
Rp95
tp96
sbsbag1
((lp97
F0.7231642016242017
aF-0.6993293511535331
aF0.7584380335852535
aF0.06584401410927393
aF0.43044770745881145
aF0.3245503135332057
aF0.8173346530191063
aF-0.09255036273715617
aF358.66848541986957
atp98
Rp99
(dp100
g6
g7
(g8
g9
Ntp101
Rp102
(dp103
g13
Finf
sg24
(g14
(g18
S'x\xbe),KH\xe3?'
p104
tp105
Rp106
g14
(g18
S'\x95\x8b\xf8\x1bb\xb4\xf4\xbf'
p107
tp108
Rp109
tp110
sbsbag1
((lp111
F0.7443880668918011
aF-0.6420937400022625
aF0.7553662600313068
aF0.0316220578119912
aF0.41511195000163725
aF0.3245503135332057
aF0.8177371616221627
aF-0.09255036273715617
aF355.84437799482174
atp112
Rp113
(dp114
g6
g7
(g8
g9
Ntp115
Rp116
(dp117
g13
g14
(g18
S'Td\r\xe5\xbfu\xa9?'
p118
tp119
Rp120
sg24
(g14
(g18
S'\x88\xb2N\xe7\xa4\xf0\xe2?'
p121
tp122
Rp123
g14
(g18
S'\xd8\xc2"\n~\xea\xe8\xbf'
p124
tp125
Rp126
tp127
sbsbag1
((lp128
F0.7443880668918011
aF-0.6420937400022625
aF0.7553662600313068
aF0.0316220578119912
aF0.41511195000163725
aF0.3245503135332057
aF0.8177371616221627
aF-0.09255036273715617
aF355.84437799482174
atp129
Rp130
(dp131
g6
g7
(g8
g9
Ntp132
Rp133
(dp134
g13
g14
(g18
S'b\x05\x08;@4\xd0?'
p135
tp136
Rp137
sg24
(g14
(g18
S'\x88\xb2N\xe7\xa4\xf0\xe2?'
p138
tp139
Rp140
g14
(g18
S'\xd8\xc2"\n~\xea\xe8\xbf'
p141
tp142
Rp143
tp144
sbsbag1
((lp145
F0.7377417192623753
aF-0.6957191455332845
aF0.7553794722275063
aF0.06584401410927393
aF0.41511195000163725
aF0.3245503135332057
aF0.818706862257059
aF-0.09255036273715617
aF394.75937567633275
atp146
Rp147
(dp148
g6
g7
(g8
g9
Ntp149
Rp150
(dp151
g13
g14
(g18
S'\xce$F\xcf\xdcs\xd2?'
p152
tp153
Rp154
sg24
(g14
(g18
S'F\xa8\xf0a\xc2\xa0\xe2?'
p155
tp156
Rp157
g14
(g18
S'\xaa\x08\xafV\xb1\x14\xed\xbf'
p158
tp159
Rp160
tp161
sbsbag1
((lp162
F0.7441174101957627
aF-0.2070716897250015
aF0.7584015417369877
aF0.06949947828972641
aF0.42672881219866343
aF0.3245503135332057
aF0.8185900617898166
aF-0.09672922073300923
aF370.28091483764393
atp163
Rp164
(dp165
g6
g7
(g8
g9
Ntp166
Rp167
(dp168
g13
g14
(g18
S'U\x96p\xfd\x93C\xcc?'
p169
tp170
Rp171
sg24
(g14
(g18
S'\xefX\xd0\xf0#\x8c\xe0?'
p172
tp173
Rp174
g14
(g18
S'\xde\xd1\x03\x19hq\xe5\xbf'
p175
tp176
Rp177
tp178
sbsbag1
((lp179
F0.7448284237133797
aF-0.6541111383327892
aF0.7574240803110553
aF0.06678047063701094
aF0.43569325802927944
aF0.29510707326017277
aF0.8178555162397511
aF-0.08091646998711582
aF354.73711588578135
atp180
Rp181
(dp182
g6
g7
(g8
g9
Ntp183
Rp184
(dp185
g13
g14
(g18
S'AY\xf2i~\xc2\xc4?'
p186
tp187
Rp188
sg24
(g14
(g18
S'\xb7\x99W\x91\xe9\x17\xde?'
p189
tp190
Rp191
g14
(g18
S'\xe3TE;\x89\xa0\xea\xbf'
p192
tp193
Rp194
tp195
sbsbag1
((lp196
F0.7446029047340834
aF-0.24640381693323501
aF0.7574011757101279
aF0.054612860114363726
aF0.4289423837796783
aF0.2889400214039198
aF0.8178555162397511
aF-0.08091646998711582
aF352.3361539637822
atp197
Rp198
(dp199
g6
g7
(g8
g9
Ntp200
Rp201
(dp202
g13
g14
(g18
S'\xfa-\xda\xe5j\xf1\xbe?'
p203
tp204
Rp205
sg24
(g14
(g18
S'\xd3\x05\xf3\xac\x07f\xdd?'
p206
tp207
Rp208
g14
(g18
S'\xebM\xe4\x87\xcb\xf1\xde\xbf'
p209
tp210
Rp211
tp212
sbsbag1
((lp213
F0.7446029047340834
aF-0.24336242666101254
aF0.7574089577949298
aF0.054612860114363726
aF0.43486389033026757
aF0.2893175096138694
aF0.8178555162397511
aF-0.08091646998711582
aF352.2344031089532
atp214
Rp215
(dp216
g6
g7
(g8
g9
Ntp217
Rp218
(dp219
g13
g14
(g18
S'i\xbe\xcb\xd0\xb0\xe7\xbf?'
p220
tp221
Rp222
sg24
(g14
(g18
S'\xc9\xc8|\xca\x0f>\xdd?'
p223
tp224
Rp225
g14
(g18
S'J\x0e\xfd\xb5\x99\xce\xde\xbf'
p226
tp227
Rp228
tp229
sbsbag1
((lp230
F0.7448479751698913
aF-0.6696234933142025
aF0.7553760350445918
aF0.06584401410927393
aF0.41511195000163725
aF0.3245503135332057
aF0.8173272700896967
aF-0.09255036273715617
aF388.70414348170397
atp231
Rp232
(dp233
g6
g7
(g8
g9
Ntp234
Rp235
(dp236
g13
g14
(g18
S'\xcc\xbe$\xee\xfe\xb1\xb4?'
p237
tp238
Rp239
sg24
(g14
(g18
S'jh\xfb\xe7\xbav\xdc?'
p240
tp241
Rp242
g14
(g18
S'K\xd5Y\xd4\xe9\x16\xe9\xbf'
p243
tp244
Rp245
tp246
sbsbag1
((lp247
F0.7443914010435004
aF-0.6540777861561538
aF0.7553662600313068
aF0.0316220578119912
aF0.4156095437983653
aF0.32438083631101666
aF0.8177322295827097
aF-0.09255036273715617
aF355.8618493111664
atp248
Rp249
(dp250
g6
g7
(g8
g9
Ntp251
Rp252
(dp253
g13
g14
(g18
S'\x0c.k\x90\x97\xdd\xcb?'
p254
tp255
Rp256
sg24
(g14
(g18
S'p\x8e\xa9\xa8K\n\xda?'
p257
tp258
Rp259
g14
(g18
S'\xf0fGb\xbbH\xe8\xbf'
p260
tp261
Rp262
tp263
sbsbag1
((lp264
F0.7449546715537835
aF-0.2475559892297831
aF0.755702749168795
aF0.016973754992343833
aF0.42639240534765266
aF0.704987353041256
aF0.8801058320662088
aF-0.8154430382068637
aF342.18869474795906
atp265
Rp266
(dp267
g6
g7
(g8
g9
Ntp268
Rp269
(dp270
g13
g14
(g18
S'z}\xef\xb1\xfd\xfe\xbf?'
p271
tp272
Rp273
sg24
(g14
(g18
S't\xeb~\xb1\xf8\xd5\xd5?'
p274
tp275
Rp276
g14
(g18
S'D\x19n/Se\xda\xbf'
p277
tp278
Rp279
tp280
sbsbag1
((lp281
F0.7449558494493231
aF-0.247544496257097
aF0.7557062475845324
aF0.016874176548929982
aF0.42639240534765266
aF0.704987353041256
aF0.8801030714094201
aF-0.8145033962022159
aF357.1156095948352
atp282
Rp283
(dp284
g6
g7
(g8
g9
Ntp285
Rp286
(dp287
g13
g14
(g18
S'\xb0\x1f\xde=\xcfG\x8e?'
p288
tp289
Rp290
sg24
(g14
(g18
S'\x946B,-\x9c\xd5?'
p291
tp292
Rp293
g14
(g18
S'\x821w!\xe6Y\xda\xbf'
p294
tp295
Rp296
tp297
sbsbag1
((lp298
F0.7446045779941697
aF-0.24841776587543257
aF0.755702749168795
aF0.06475757923289101
aF0.4315170490238016
aF0.7114001333295966
aF0.8807169106609013
aF-0.7993829765570433
aF357.2170637412492
atp299
Rp300
(dp301
g6
g7
(g8
g9
Ntp302
Rp303
(dp304
g13
g14
(g18
S'e\xe9&x\xb8\x83\xce?'
p305
tp306
Rp307
sg24
(g14
(g18
S'\x8d\x17\xb8\xc49\x1c\xd5?'
p308
tp309
Rp310
g14
(g18
S'\xea\xc6Hzc\xe9\xdd\xbf'
p311
tp312
Rp313
tp314
sbsbag1
((lp315
F0.7448446715531799
aF-0.2478826295059604
aF0.7555952100641874
aF0.006489018428595603
aF0.4263537097238263
aF0.704987353041256
aF0.8807169106609013
aF-0.8226954485564018
aF348.7408937282282
atp316
Rp317
(dp318
g6
g7
(g8
g9
Ntp319
Rp320
(dp321
g13
g14
(g18
S'\x1b\x94\xc9\xff\xb1^\xa1?'
p322
tp323
Rp324
sg24
(g14
(g18
S"'\xbe\xc5+\x8e\xd4\xd4?"
p325
tp326
Rp327
g14
(g18
S'\xc0=]\xc5<\x18\xda\xbf'
p328
tp329
Rp330
tp331
sbsbag1
((lp332
F0.7449558494493231
aF-0.2478826295059604
aF0.7555117288436214
aF0.006489018428595603
aF0.42639240534765266
aF0.704987353041256
aF0.8807169106609013
aF-0.8145033962022159
aF357.1156095948352
atp333
Rp334
(dp335
g6
g7
(g8
g9
Ntp336
Rp337
(dp338
g13
g14
(g18
S'\x93\x8c\xf4\xae\x9b{\x9b?'
p339
tp340
Rp341
sg24
(g14
(g18
S'd\x88\xb5\x94\xb1\x1d\xd3?'
p342
tp343
Rp344
g14
(g18
S'j\x88\xac\xecV\x12\xda\xbf'
p345
tp346
Rp347
tp348
sbsbag1
((lp349
F0.7449353774531832
aF-0.2341987211887044
aF0.7554212860378211
aF0.004810379247409301
aF0.38886962063093217
aF0.7474162617626393
aF0.8816345654694497
aF-0.7988587522970498
aF357.7046806692382
atp350
Rp351
(dp352
g6
g7
(g8
g9
Ntp353
Rp354
(dp355
g13
g14
(g18
S'\x01\xf7sL\xd0#\xce?'
p356
tp357
Rp358
sg24
(g14
(g18
S"z\x00\n'\xab\x07\xd3?"
p359
tp360
Rp361
g14
(g18
S'|\xeeS\xb7B~\xd9\xbf'
p362
tp363
Rp364
tp365
sbsbag1
((lp366
F0.7446003766405602
aF-0.2341987211887044
aF0.7554233450640095
aF0.004810379247409301
aF0.43553480389632665
aF0.6865067058355686
aF0.881080012066763
aF-0.7988630794829064
aF357.68564244972623
atp367
Rp368
(dp369
g6
g7
(g8
g9
Ntp370
Rp371
(dp372
g13
g14
(g18
S'\xb9Y%\xb1k\xe5\xd1?'
p373
tp374
Rp375
sg24
(g14
(g18
S'\xd55Vs\x06\xf8\xd1?'
p376
tp377
Rp378
g14
(g18
S'SK{!$j\xda\xbf'
p379
tp380
Rp381
tp382
sbsbag1
((lp383
F0.7446017051728768
aF-0.23418738274463594
aF0.7550405286583375
aF0.04354837059965042
aF0.43560794583871226
aF0.5713275557139734
aF0.9015877524224689
aF-0.7693999618894956
aF357.7595626487054
atp384
Rp385
(dp386
g6
g7
(g8
g9
Ntp387
Rp388
(dp389
g13
g14
(g18
S'i\xa4\x1c\x92Xw\xce?'
p390
tp391
Rp392
sg24
(g14
(g18
S'#v\xdc\xbfs\xe2\x93?'
p393
tp394
Rp395
g14
(g18
S'\xa0\xad\xab\xfc\xbbB\xda\xbf'
p396
tp397
Rp398
tp399
sbsbag1
((lp400
F0.74464329123333
aF-0.10172594408718684
aF0.7556473195397734
aF0.044351581124488636
aF0.4261982557093287
aF0.7112920672584995
aF0.8860165014719202
aF-0.8018270343239814
aF357.2546717366533
atp401
Rp402
(dp403
g6
g7
(g8
g9
Ntp404
Rp405
(dp406
g13
g14
(g18
S'\x1b\xf3\xd8^#.\xce?'
p407
tp408
Rp409
sg24
(g14
(g18
S':\xc3\x1b\xe6l\x03\x93?'
p410
tp411
Rp412
g14
(g18
S')\xe5\xab\xbfr}\xd9\xbf'
p413
tp414
Rp415
tp416
sbsbag1
((lp417
F0.7446045779941697
aF-0.23418738274463594
aF0.755429536978835
aF0.04350520236193582
aF0.4355343493572391
aF0.5713275557139734
aF0.9015877524224689
aF-0.7998184956184797
aF357.69596815239737
atp418
Rp419
(dp420
g6
g7
(g8
g9
Ntp421
Rp422
(dp423
g13
g14
(g18
S'\xe7\xd6<;\xb4\xa5\x84?'
p424
tp425
Rp426
sg24
(g14
(g18
S'\x9a\x96:\xaalI\x91?'
p427
tp428
Rp429
g14
(g18
S'\xc5F\x15x\xfa\xe7\xd8\xbf'
p430
tp431
Rp432
tp433
sbsbag1
((lp434
F0.7449546715537835
aF-0.23395400252369156
aF0.755702749168795
aF0.016973754992343833
aF0.42639240534765266
aF0.7495801115461017
aF0.8801058320662088
aF-0.7994725346566274
aF357.25209695936337
atp435
Rp436
(dp437
g6
g7
(g8
g9
Ntp438
Rp439
(dp440
g13
g14
(g18
S'\xcdZ\x82\xdc>\xb2o?'
p441
tp442
Rp443
sg24
(g14
(g18
S'\x02X\x7f^\x19\xfe\x8e?'
p444
tp445
Rp446
g14
(g18
S'd\x0c\xa4\xdcPB\xd8\xbf'
p447
tp448
Rp449
tp450
sbsbag1
((lp451
F0.7449546715537835
aF-0.23395400252369156
aF0.755702749168795
aF0.016973754992343833
aF0.42639240534765266
aF0.7495801115461017
aF0.8801058320662088
aF-0.7994725346566274
aF357.25209695936337
atp452
Rp453
(dp454
g6
g7
(g8
g9
Ntp455
Rp456
(dp457
g13
g14
(g18
S'/\xcd\xf6X\xa8\xba\x81?'
p458
tp459
Rp460
sg24
(g14
(g18
S'\x02X\x7f^\x19\xfe\x8e?'
p461
tp462
Rp463
g14
(g18
S'd\x0c\xa4\xdcPB\xd8\xbf'
p464
tp465
Rp466
tp467
sbsbag1
((lp468
F0.7446045779941697
aF-0.23418738274463594
aF0.755702749168795
aF0.04350520236193582
aF0.4304044414210234
aF0.5713275557139734
aF0.9006779505406887
aF-0.7998184956184797
aF357.69596815239737
atp469
Rp470
(dp471
g6
g7
(g8
g9
Ntp472
Rp473
(dp474
g13
g14
(g18
S'\x82\xbb\xfb\xfe+%\xa6?'
p475
tp476
Rp477
sg24
(g14
(g18
S'\xf9&y\xb0\xda\xfe\x82?'
p478
tp479
Rp480
g14
(g18
S'\xb6\x1c9l\xe6\xd8\xd7\xbf'
p481
tp482
Rp483
tp484
sbsbag1
((lp485
F0.74464329123333
aF-0.10172594408718684
aF0.7556473195397734
aF0.04350520236193582
aF0.4261982557093287
aF0.5645449590723344
aF0.9006779505406887
aF-0.8018270343239814
aF356.20479731778767
atp486
Rp487
(dp488
g6
g7
(g8
g9
Ntp489
Rp490
(dp491
g13
g14
(g18
S'\xa6\x7f\xc1\x00\xfc\xd3\xa4?'
p492
tp493
Rp494
sg24
(g14
(g18
S'\xd4\t\xc1$\x06\xcey?'
p495
tp496
Rp497
g14
(g18
S'\xbav\xfb\tj%\xd2\xbf'
p498
tp499
Rp500
tp501
sbsbag1
((lp502
F0.7449546715537835
aF-0.1007608690301527
aF0.7557004396233558
aF0.008847542508459932
aF0.42639240534765266
aF0.5701952697123042
aF0.9007546179750181
aF-0.8145033962022159
aF342.79991363026926
atp503
Rp504
(dp505
g6
g7
(g8
g9
Ntp506
Rp507
(dp508
g13
g14
(g18
S'73\xa6\xca\xab\x96\x93?'
p509
tp510
Rp511
sg24
(g14
(g18
S"f\xb8^\xb9.'r?"
p512
tp513
Rp514
g14
(g18
S'\xa0\x1c\xc61\x18\x9c\xd1\xbf'
p515
tp516
Rp517
tp518
sbsbag1
((lp519
F0.744829794333922
aF-0.22731750620054617
aF0.7575188590621765
aF0.004810379247409301
aF0.38886962063093217
aF0.29798046880371265
aF0.8816345654694497
aF-0.8400993897632357
aF343.6266325382708
atp520
Rp521
(dp522
g6
g7
(g8
g9
Ntp523
Rp524
(dp525
g13
g14
(g18
S'\xac^\x12\xda\xb1\xbe\xb7?'
p526
tp527
Rp528
sg24
(g14
(g18
S'H\xe4$\xf9\xac1D?'
p529
tp530
Rp531
g14
(g18
S'\xd77Z\xb5\x04u\xd7\xbf'
p532
tp533
Rp534
tp535
sbsbag1
((lp536
F0.7449546715537835
aF-0.12624705841111866
aF0.7557004396233558
aF0.008847542508459932
aF0.39303953140878956
aF0.5645609117498569
aF0.9002400938334002
aF-0.8145033962022159
aF342.79991363026926
atp537
Rp538
(dp539
g6
g7
(g8
g9
Ntp540
Rp541
(dp542
g13
g14
(g18
S'\x18\xec{\x92<\xd2\x91?'
p543
tp544
Rp545
sg24
(g14
(g18
S'c\x80\xf7\xd7T7*?'
p546
tp547
Rp548
g14
(g18
S'\x90\xfe\x164\xd7\x80\xcf\xbf'
p549
tp550
Rp551
tp552
sbsbag1
((lp553
F0.6519928103756704
aF-0.25955731262377624
aF0.9274495387960897
aF0.767630770931065
aF0.6263690116586891
aF-0.6662053897864207
aF0.7550256851300637
aF-0.7417221661074517
aF304.55958498369597
atp554
Rp555
(dp556
g6
g7
(g8
g9
Ntp557
Rp558
(dp559
g13
g14
(g18
S'2\xd2\xfba\xf0\x9e\x9e?'
p560
tp561
Rp562
sg24
(g14
(g18
S"\xbc\xa1\\\n'H\xfd<"
p563
tp564
Rp565
g14
(g18
S'\xa3x-*+\x8c\xce\xbf'
p566
tp567
Rp568
tp569
sbsbag1
((lp570
F0.6519928103756704
aF-0.25955731262377624
aF0.9274495387960897
aF0.767630770931065
aF0.6263690116586891
aF-0.6662053897864207
aF0.7550256851300637
aF-0.7417221661074517
aF304.55958498369597
atp571
Rp572
(dp573
g6
g7
(g8
g9
Ntp574
Rp575
(dp576
g13
g14
(g18
S'\xb5\xb4\xc4\xea\\\x03g?'
p577
tp578
Rp579
sg24
(g14
(g18
S"\xbc\xa1\\\n'H\xfd<"
p580
tp581
Rp582
g14
(g18
S'\xa3x-*+\x8c\xce\xbf'
p583
tp584
Rp585
tp586
sbsbag1
((lp587
F0.7434753749163117
aF-0.21012689422601838
aF0.9274029744354589
aF0.8862302494679145
aF0.6458476701557844
aF-0.7440047328464559
aF0.9019616602868239
aF-0.7379089121487046
aF304.55958498369597
atp588
Rp589
(dp590
g6
g7
(g8
g9
Ntp591
Rp592
(dp593
g13
g14
(g18
S'\x9c\x16}\x15\xcb\xb3\xb4?'
p594
tp595
Rp596
sg24
(g14
(g18
S'\\\n{\xe4\xddk\xfb<'
p597
tp598
Rp599
g14
(g18
S'\xa3\x1a=\x9a&n\xc4\xbf'
p600
tp601
Rp602
tp603
sbsbag1
((lp604
F0.7434753749163117
aF-0.21012689422601838
aF0.9274029744354589
aF0.8862302494679145
aF0.6229823124148156
aF-0.7440047328464559
aF0.8214481189348081
aF-0.740824897833825
aF304.55958498369597
atp605
Rp606
(dp607
g6
g7
(g8
g9
Ntp608
Rp609
(dp610
g13
g14
(g18
S'\xc72;\\Rw\xb4?'
p611
tp612
Rp613
sg24
(g14
(g18
S'\x00\x06{\xe4\xddk\xfb<'
p614
tp615
Rp616
g14
(g18
S'\xa3\x1a=\x9a&n\xc4\xbf'
p617
tp618
Rp619
tp620
sbsbag1
((lp621
F0.6493039041261087
aF-0.36982525715915954
aF0.8527613269639929
aF0.2104270092622479
aF0.41402030134053397
aF-0.7398473150462317
aF0.7557094310804515
aF-0.45597677825317107
aF303.3391718597696
atp622
Rp623
(dp624
g6
g7
(g8
g9
Ntp625
Rp626
(dp627
g13
g14
(g18
S'\x88mYg\xec\xbe\xae?'
p628
tp629
Rp630
sg24
(g14
(g18
S'(\x00\x99r\xd3K\xfb<'
p631
tp632
Rp633
g14
(g18
S'\xba^\xfb\x02\xc9F\x98\xbf'
p634
tp635
Rp636
tp637
sbsbag1
((lp638
F0.7445253864195551
aF-0.2595510346892341
aF0.9217046642054679
aF0.767630770931065
aF0.6616432569288822
aF0.161180360215068
aF0.9259724074148648
aF-0.8856030346062247
aF390.1860058210441
atp639
Rp640
(dp641
g6
g7
(g8
g9
Ntp642
Rp643
(dp644
g13
Finf
sg24
(g14
(g18
S'<e3\x8f\xae\x92\xe6<'
p645
tp646
Rp647
F-0.0
tp648
sbsbag1
((lp649
F0.7445253864195551
aF-0.26003314578063774
aF0.9151189971956961
aF0.767630770931065
aF0.6618855034311582
aF0.8407461628086332
aF0.9257897920420879
aF-0.799918720732055
aF390.1860058210441
atp650
Rp651
(dp652
g6
g7
(g8
g9
Ntp653
Rp654
(dp655
g13
Finf
sg24
(g14
(g18
S"iJ-'\x10\x86\xd7<"
p656
tp657
Rp658
F-0.0
tp659
sbsbag1
((lp660
F0.7445253864195551
aF-0.26003314578063774
aF0.9151189971956961
aF0.767630770931065
aF0.6618855034311582
aF0.8407461628086332
aF0.9257897920420879
aF-0.799918720732055
aF390.1860058210441
atp661
Rp662
(dp663
g6
g7
(g8
g9
Ntp664
Rp665
(dp666
g13
g14
(g18
S'\x00\x00\x00\x00\x00\x00\xf0\x7f'
p667
tp668
Rp669
sg24
(g14
(g18
S"iJ-'\x10\x86\xd7<"
p670
tp671
Rp672
F-0.0
tp673
sbsba.