(lp0
cdeap.creator
Individual
p1
((lp2
F0.7036797806300812
aF-0.439016025732629
aF0.994920808130366
aF0.17828939809154953
aF413.1423370858142
atp3
Rp4
(dp5
S'fitness'
p6
ccopy_reg
_reconstructor
p7
(cdeap.creator
FitnessMin
p8
c__builtin__
object
p9
Ntp10
Rp11
(dp12
S'crowding_dist'
p13
cnumpy.core.multiarray
scalar
p14
(cnumpy
dtype
p15
(S'f8'
p16
I0
I1
tp17
Rp18
(I3
S'<'
p19
NNNI-1
I-1
I0
tp20
bS'\x00\x00\x00\x00\x00\x00\xf0\x7f'
p21
tp22
Rp23
sS'wvalues'
p24
(g14
(g18
S"j@'\xb7\xcf\xb9\xda?"
p25
tp26
Rp27
g14
(g18
S'I\xe6\xe0\xa1\xd7\xe47\xc0'
p28
tp29
Rp30
tp31
sbsbag1
((lp32
F0.7036797806300812
aF-0.439016025732629
aF0.994920808130366
aF0.17828939809154953
aF413.1423370858142
atp33
Rp34
(dp35
g6
g7
(g8
g9
Ntp36
Rp37
(dp38
g13
Finf
sg24
(g14
(g18
S"j@'\xb7\xcf\xb9\xda?"
p39
tp40
Rp41
g14
(g18
S'I\xe6\xe0\xa1\xd7\xe47\xc0'
p42
tp43
Rp44
tp45
sbsbag1
((lp46
F0.7036797806300812
aF-0.439016025732629
aF0.9823144282242905
aF0.08047983717436902
aF413.1423370858142
atp47
Rp48
(dp49
g6
g7
(g8
g9
Ntp50
Rp51
(dp52
g13
g14
(g18
S'\xca\xfc\xa0\xc6\x06\xd8\xab?'
p53
tp54
Rp55
sg24
(g14
(g18
S'?\xbb.\xf3\xe4 \xda?'
p56
tp57
Rp58
g14
(g18
S'\xdey\x8f\xb7\xca\xe06\xc0'
p59
tp60
Rp61
tp62
sbsbag1
((lp63
F0.6645170754693339
aF-0.39559804248104546
aF0.9251941587995574
aF0.8881066744364512
aF412.9382067308517
atp64
Rp65
(dp66
g6
g7
(g8
g9
Ntp67
Rp68
(dp69
g13
g14
(g18
S'\xc6\xa9\xeb\x15\xff\xc6\xaa?'
p70
tp71
Rp72
sg24
(g14
(g18
S'\xa4\x91\x04\x91k\x1e\xda?'
p73
tp74
Rp75
g14
(g18
S'\xbf\x85\xbd\xf0\xa6\\5\xc0'
p76
tp77
Rp78
tp79
sbsbag1
((lp80
F0.6647303003627462
aF-0.45030902129971256
aF0.9236851307917031
aF0.897597861053544
aF412.8091548182032
atp81
Rp82
(dp83
g6
g7
(g8
g9
Ntp84
Rp85
(dp86
g13
g14
(g18
S'\\9b\n\x84\xad\xa3?'
p87
tp88
Rp89
sg24
(g14
(g18
S'NU_\xcc\xf2p\xd9?'
p90
tp91
Rp92
g14
(g18
S'opvmG\xfe4\xc0'
p93
tp94
Rp95
tp96
sbsbag1
((lp97
F0.6775525703732747
aF-0.4753429743019787
aF0.9236851307917031
aF0.880525427575032
aF412.8091548182032
atp98
Rp99
(dp100
g6
g7
(g8
g9
Ntp101
Rp102
(dp103
g13
g14
(g18
S'WF\x82\r?E\xa3?'
p104
tp105
Rp106
sg24
(g14
(g18
S'1d\xee)|0\xd9?'
p107
tp108
Rp109
g14
(g18
S'\x89\xeb\x8e\x192[4\xc0'
p110
tp111
Rp112
tp113
sbsbag1
((lp114
F0.6775525703732747
aF-0.4753429743019787
aF0.9236851307917031
aF0.880525427575032
aF412.8091548182032
atp115
Rp116
(dp117
g6
g7
(g8
g9
Ntp118
Rp119
(dp120
g13
g14
(g18
S'\xe3\xd5bZf$\x9e?'
p121
tp122
Rp123
sg24
(g14
(g18
S'1d\xee)|0\xd9?'
p124
tp125
Rp126
g14
(g18
S'\x89\xeb\x8e\x192[4\xc0'
p127
tp128
Rp129
tp130
sbsbag1
((lp131
F0.672513636996928
aF-0.44792538881420774
aF0.9022642503126755
aF0.8951577350331252
aF413.0066868619509
atp132
Rp133
(dp134
g6
g7
(g8
g9
Ntp135
Rp136
(dp137
g13
g14
(g18
S'\xfeA\x13<I\xb1\xa9?'
p138
tp139
Rp140
sg24
(g14
(g18
S'\xa3\xa4\xbd\x0c\x1cT\xd8?'
p141
tp142
Rp143
g14
(g18
S"?\x04'\x85a\xc82\xc0"
p144
tp145
Rp146
tp147
sbsbag1
((lp148
F0.6802409098550541
aF-0.39559557227488756
aF0.909873221755866
aF0.7844691457796339
aF412.81270139312267
atp149
Rp150
(dp151
g6
g7
(g8
g9
Ntp152
Rp153
(dp154
g13
g14
(g18
S'^\x02-\xa6\xafC\xa2?'
p155
tp156
Rp157
sg24
(g14
(g18
S'z=\xa2\xb1X\xf1\xd7?'
p158
tp159
Rp160
g14
(g18
S'\xeb\xc7\xb34\xd8\x952\xc0'
p161
tp162
Rp163
tp164
sbsbag1
((lp165
F0.6813794960335713
aF-0.3948055283849261
aF0.9041088360288502
aF0.7844691457796339
aF412.81270139312267
atp166
Rp167
(dp168
g6
g7
(g8
g9
Ntp169
Rp170
(dp171
g13
g14
(g18
S'\x8e\x97X\x11\xe7\x15\xa9?'
p172
tp173
Rp174
sg24
(g14
(g18
S'\xc4\xdc\xe8\x06\xa1L\xd7?'
p175
tp176
Rp177
g14
(g18
S'\xa0\x18\x0e\x84z\xf11\xc0'
p178
tp179
Rp180
tp181
sbsbag1
((lp182
F0.6814197426612565
aF-0.4769390844558302
aF0.8901407618145758
aF0.767287283711205
aF412.77840288080455
atp183
Rp184
(dp185
g6
g7
(g8
g9
Ntp186
Rp187
(dp188
g13
g14
(g18
S'\xf7A|_\xf1.\xa1?'
p189
tp190
Rp191
sg24
(g14
(g18
S'o]*\x90\xf7\x02\xd7?'
p192
tp193
Rp194
g14
(g18
S'h\x8b\xfc\x9e\x92\x131\xc0'
p195
tp196
Rp197
tp198
sbsbag1
((lp199
F0.6696965312404165
aF-0.40516426477093886
aF0.8663466912695401
aF0.10178788164326906
aF412.985058920651
atp200
Rp201
(dp202
g6
g7
(g8
g9
Ntp203
Rp204
(dp205
g13
g14
(g18
S'\x1aO\xf6\xcd\xcbL\xa9?'
p206
tp207
Rp208
sg24
(g14
(g18
S'\x10z\t\x08\xab{\xd6?'
p209
tp210
Rp211
g14
(g18
S'\x8aGM\xf7\x1e%0\xc0'
p212
tp213
Rp214
tp215
sbsbag1
((lp216
F0.6696365278405677
aF-0.4127455508005824
aF0.8559969639286801
aF0.10177490031760304
aF413.14260075551505
atp217
Rp218
(dp219
g6
g7
(g8
g9
Ntp220
Rp221
(dp222
g13
g14
(g18
S'_\x94*\x7fy\x11\xa0?'
p223
tp224
Rp225
sg24
(g14
(g18
S'\xd1\xa2\xf0\x13^\xd7\xd5?'
p226
tp227
Rp228
g14
(g18
S'\xff4O\xa70\x90.\xc0'
p229
tp230
Rp231
tp232
sbsbag1
((lp233
F0.6696365278405677
aF-0.4127455508005824
aF0.8559969639286801
aF0.10177490031760304
aF412.985058920651
atp234
Rp235
(dp236
g6
g7
(g8
g9
Ntp237
Rp238
(dp239
g13
g14
(g18
S'R\x08\x03\xcd$\xf4\xa2?'
p240
tp241
Rp242
sg24
(g14
(g18
S'\xf0\xa6\xcc\x80\xc4\xc8\xd5?'
p243
tp244
Rp245
g14
(g18
S'\xa3\xbb/r\xf1\x81.\xc0'
p246
tp247
Rp248
tp249
sbsbag1
((lp250
F0.6692029560477154
aF-0.44708300408947715
aF0.8431600762283188
aF0.10131726449014572
aF413.0455969732382
atp251
Rp252
(dp253
g6
g7
(g8
g9
Ntp254
Rp255
(dp256
g13
g14
(g18
S'\x9a\xde\xcf\xeaW\x01\xa3?'
p257
tp258
Rp259
sg24
(g14
(g18
S"\xf0\xd1\xb0\x1c'\xf3\xd4?"
p260
tp261
Rp262
g14
(g18
S'}\x1b\xcbsw~,\xc0'
p263
tp264
Rp265
tp266
sbsbag1
((lp267
F0.6746913854241368
aF-0.4911811285437799
aF0.8426905797890016
aF0.06625046871126428
aF411.4120994611533
atp268
Rp269
(dp270
g6
g7
(g8
g9
Ntp271
Rp272
(dp273
g13
g14
(g18
S'\xf3\xe1O\xe8\x1b5\xa2?'
p274
tp275
Rp276
sg24
(g14
(g18
S'\xd8\x7f\xb7^\xdd\x13\xd4?'
p277
tp278
Rp279
g14
(g18
S'\x9f\x9eEWNR+\xc0'
p280
tp281
Rp282
tp283
sbsbag1
((lp284
F0.6746913854241368
aF-0.42308887195782535
aF0.8426905797890016
aF0.06625046871126428
aF411.4120994611533
atp285
Rp286
(dp287
g6
g7
(g8
g9
Ntp288
Rp289
(dp290
g13
g14
(g18
S'\xd7`GCX\x04\xa2?'
p291
tp292
Rp293
sg24
(g14
(g18
S'\x1a*>\x93\xe1\xd2\xd3?'
p294
tp295
Rp296
g14
(g18
S"\xb4K='\x11\xe8*\xc0"
p297
tp298
Rp299
tp300
sbsbag1
((lp301
F0.6771462617182376
aF-0.4755747179377336
aF0.8317879290227903
aF0.11957938509236471
aF412.86952647633575
atp302
Rp303
(dp304
g6
g7
(g8
g9
Ntp305
Rp306
(dp307
g13
g14
(g18
S'.\x82/\xcd\xc8n\x9e?'
p308
tp309
Rp310
sg24
(g14
(g18
S'\xd5\xa4k4\x90_\xd3?'
p311
tp312
Rp313
g14
(g18
S'*6\x01\xf3\xb47)\xc0'
p314
tp315
Rp316
tp317
sbsbag1
((lp318
F0.6814197426612565
aF-0.4505407649354674
aF0.8316267758970333
aF0.17385029273257402
aF412.86952647633575
atp319
Rp320
(dp321
g6
g7
(g8
g9
Ntp322
Rp323
(dp324
g13
g14
(g18
S'(7+H\x87\xf9\xa4?'
p325
tp326
Rp327
sg24
(g14
(g18
S'P\xdb\x1ev\x14\x98\xd2?'
p328
tp329
Rp330
g14
(g18
S'_|~\xfe@4(\xc0'
p331
tp332
Rp333
tp334
sbsbag1
((lp335
F0.7036942347530261
aF-0.6299437366766887
aF0.8345220762824626
aF0.6995849431612282
aF413.1380976086456
atp336
Rp337
(dp338
g6
g7
(g8
g9
Ntp339
Rp340
(dp341
g13
g14
(g18
S'\xbc\xcb\x9a{c\t\xa8?'
p342
tp343
Rp344
sg24
(g14
(g18
S'\xc5\x0f13\x04\xbb\xd1?'
p345
tp346
Rp347
g14
(g18
S'^\x03\x12\xb2k\x01&\xc0'
p348
tp349
Rp350
tp351
sbsbag1
((lp352
F0.7058770196646077
aF-0.4245804361782146
aF0.8398225732058213
aF0.07461490375184875
aF412.3924226682717
atp353
Rp354
(dp355
g6
g7
(g8
g9
Ntp356
Rp357
(dp358
g13
g14
(g18
S'p[\xcc\x96\xf9\xd1\xa3?'
p359
tp360
Rp361
sg24
(g14
(g18
S'\x85q7f\x06x\xd1?'
p362
tp363
Rp364
g14
(g18
S'[x~`\xa8\xba%\xc0'
p365
tp366
Rp367
tp368
sbsbag1
((lp369
F0.7212403231349234
aF-0.6353250915238154
aF0.8396408520711559
aF0.6851076041434911
aF412.67379214466985
atp370
Rp371
(dp372
g6
g7
(g8
g9
Ntp373
Rp374
(dp375
g13
g14
(g18
S'\x11\xa53\x92ct\xa1?'
p376
tp377
Rp378
sg24
(g14
(g18
S'\xe6\xeb\xc7=4\x91\xd0?'
p379
tp380
Rp381
g14
(g18
S'yk\x8aX\xc4b$\xc0'
p382
tp383
Rp384
tp385
sbsbag1
((lp386
F0.7212403231349234
aF-0.6320297081228178
aF0.8345220762824626
aF0.6995849431612282
aF412.8665018546034
atp387
Rp388
(dp389
g6
g7
(g8
g9
Ntp390
Rp391
(dp392
g13
g14
(g18
S'\xb5%m\xa6\xf6\xa4\xac?'
p393
tp394
Rp395
sg24
(g14
(g18
S'\xc9\x1f\x1dR%U\xd0?'
p396
tp397
Rp398
g14
(g18
S'\xa5\n\xa3D\xf9\x94#\xc0'
p399
tp400
Rp401
tp402
sbsbag1
((lp403
F0.7289843900182845
aF-0.4455960118745532
aF0.834584965546421
aF0.19862810805612213
aF412.86946089342445
atp404
Rp405
(dp406
g6
g7
(g8
g9
Ntp407
Rp408
(dp409
g13
g14
(g18
S'3\x16l\x00\xbc\xe8\xb0?'
p410
tp411
Rp412
sg24
(g14
(g18
S';\xd6\xfa\xc2\x8c"\xce?'
p413
tp414
Rp415
g14
(g18
S'\xa4\xab{\xc3\xe7j!\xc0'
p416
tp417
Rp418
tp419
sbsbag1
((lp420
F0.7011779928855129
aF-0.4784608922472241
aF0.7970154288424273
aF0.08047983717436902
aF413.1423370858142
atp421
Rp422
(dp423
g6
g7
(g8
g9
Ntp424
Rp425
(dp426
g13
g14
(g18
S'&O!\xb2\x03\xa2\x9e?'
p427
tp428
Rp429
sg24
(g14
(g18
S'\\\xd4\x18\x9e\xa0g\xcb?'
p430
tp431
Rp432
g14
(g18
S'\x81Jx\xb5\xb8\xd3\x1e\xc0'
p433
tp434
Rp435
tp436
sbsbag1
((lp437
F0.7023642013918566
aF-0.5896076575180823
aF0.792970765187375
aF0.1506658368162256
aF412.3736800421597
atp438
Rp439
(dp440
g6
g7
(g8
g9
Ntp441
Rp442
(dp443
g13
g14
(g18
S'\x0c\xa5\x12\x86\xb6\x9b\xa7?'
p444
tp445
Rp446
sg24
(g14
(g18
S'\xe7\xdfa\xb3E\xe0\xca?'
p447
tp448
Rp449
g14
(g18
S'\xe8\xe5$\x1d\xc5\x98\x1d\xc0'
p450
tp451
Rp452
tp453
sbsbag1
((lp454
F0.7391150942075656
aF-0.41999116658795205
aF0.815660601369263
aF0.08761158423879206
aF412.99335649257625
atp455
Rp456
(dp457
g6
g7
(g8
g9
Ntp458
Rp459
(dp460
g13
g14
(g18
S"\xde')\xd0+\x97\xa2?"
p461
tp462
Rp463
sg24
(g14
(g18
S'}\xe9L\x03\t_\xc9?'
p464
tp465
Rp466
g14
(g18
S'W\xfc\x96\xb74\xa6\x19\xc0'
p467
tp468
Rp469
tp470
sbsbag1
((lp471
F0.7443181351376376
aF-0.47864897199714146
aF0.8164757967745464
aF0.08964507929577983
aF412.0742373687256
atp472
Rp473
(dp474
g6
g7
(g8
g9
Ntp475
Rp476
(dp477
g13
g14
(g18
S'\xeba\x05\xff\xd5 \xaa?'
p478
tp479
Rp480
sg24
(g14
(g18
S'X%\x0f\xb2%j\xc7?'
p481
tp482
Rp483
g14
(g18
S'`\xa8K\x1e\x02\x83\x18\xc0'
p484
tp485
Rp486
tp487
sbsbag1
((lp488
F0.7419024212395274
aF-0.5915367868494761
aF0.7892799925983967
aF0.7675548208678753
aF412.94408171894025
atp489
Rp490
(dp491
g6
g7
(g8
g9
Ntp492
Rp493
(dp494
g13
g14
(g18
S'\xf4\x9d\x99K\x97\x0b\xa9?'
p495
tp496
Rp497
sg24
(g14
(g18
S'$\xed\xc2L\xe9\xbd\xc6?'
p498
tp499
Rp500
g14
(g18
S'\xc7m\xe4\x87,K\x14\xc0'
p501
tp502
Rp503
tp504
sbsbag1
((lp505
F0.7252425128353862
aF-0.6211247651159894
aF0.777299877043584
aF0.0683358836084994
aF411.7182010319054
atp506
Rp507
(dp508
g6
g7
(g8
g9
Ntp509
Rp510
(dp511
g13
g14
(g18
S'X\x10\x12\xdc\x0b\xcf\xa8?'
p512
tp513
Rp514
sg24
(g14
(g18
S'\xbb\xf0\xdc*\xfe\x8e\xc5?'
p515
tp516
Rp517
g14
(g18
S'\xab\n0\xe5\xe6z\x12\xc0'
p518
tp519
Rp520
tp521
sbsbag1
((lp522
F0.7422919968494522
aF-0.4204203787698068
aF0.788705863949827
aF0.11982142011898983
aF412.6706285434021
atp523
Rp524
(dp525
g6
g7
(g8
g9
Ntp526
Rp527
(dp528
g13
g14
(g18
S'R\xd2r%ai\xaa?'
p529
tp530
Rp531
sg24
(g14
(g18
S'M\x0f\x98\xfb\x80\xc8\xc3?'
p532
tp533
Rp534
g14
(g18
S'Hg\xd5\x98\\R\x10\xc0'
p535
tp536
Rp537
tp538
sbsbag1
((lp539
F0.7429894331477956
aF-0.4390753598753898
aF0.7846594852539607
aF0.06793405778399417
aF412.94030805084054
atp540
Rp541
(dp542
g6
g7
(g8
g9
Ntp543
Rp544
(dp545
g13
g14
(g18
S'\xd2yo\x85\xe3\xd6\xa1?'
p546
tp547
Rp548
sg24
(g14
(g18
S'l\x08;\x108\x12\xc2?'
p549
tp550
Rp551
g14
(g18
S'; \xbdw\xe1\xb5\r\xc0'
p552
tp553
Rp554
tp555
sbsbag1
((lp556
F0.7336583529528671
aF-0.628887860660496
aF0.7670714083160493
aF0.0683358836084994
aF411.7182010319054
atp557
Rp558
(dp559
g6
g7
(g8
g9
Ntp560
Rp561
(dp562
g13
g14
(g18
S'\xa8L\xc6a>\x87\x9f?'
p563
tp564
Rp565
sg24
(g14
(g18
S'\x1f\xd6\x08\x9fn\xde\xc1?'
p566
tp567
Rp568
g14
(g18
S'\x11-\x98\xc1D+\n\xc0'
p569
tp570
Rp571
tp572
sbsbag1
((lp573
F0.7446418451830265
aF-0.30579405368702295
aF0.7778643976521877
aF0.08767799264099507
aF411.85370385790003
atp574
Rp575
(dp576
g6
g7
(g8
g9
Ntp577
Rp578
(dp579
g13
g14
(g18
S'\xa4\x80\xd1\xb5\xf89\xab?'
p580
tp581
Rp582
sg24
(g14
(g18
S'\x0ez\x19\xa2\tn\xc0?'
p583
tp584
Rp585
g14
(g18
S'\x163\x89\x960\xbc\x06\xc0'
p586
tp587
Rp588
tp589
sbsbag1
((lp590
F0.7422919968494522
aF-0.4719673889149949
aF0.7596347331896183
aF0.08086057031352478
aF412.9803708217696
atp591
Rp592
(dp593
g6
g7
(g8
g9
Ntp594
Rp595
(dp596
g13
g14
(g18
S';D7\x8c1\x9b\xb1?'
p597
tp598
Rp599
sg24
(g14
(g18
S'Myp0_\x0b\xba?'
p600
tp601
Rp602
g14
(g18
S'\t\x8fo\x8b\xefT\xff\xbf'
p603
tp604
Rp605
tp606
sbsbag1
((lp607
F0.7443203488818251
aF-0.422768462458369
aF0.7585458373019328
aF0.10131782962482992
aF412.67276586638764
atp608
Rp609
(dp610
g6
g7
(g8
g9
Ntp611
Rp612
(dp613
g13
g14
(g18
S'\xef\x80\x1bI\x91\xb9\xa1?'
p614
tp615
Rp616
sg24
(g14
(g18
S'\x18G\xc4\x0eE?\xb7?'
p617
tp618
Rp619
g14
(g18
S"\xae\x1b\x1f'\xc9B\xfb\xbf"
p620
tp621
Rp622
tp623
sbsbag1
((lp624
F0.7422919968494522
aF-0.47217664121395264
aF0.7597867427610383
aF0.10113210766683309
aF388.86848528160374
atp625
Rp626
(dp627
g6
g7
(g8
g9
Ntp628
Rp629
(dp630
g13
g14
(g18
S'1\x8a\xd0\xe8\x8f\xe4\xab?'
p631
tp632
Rp633
sg24
(g14
(g18
S'\xdd\xa0\xca\xbd\x84\xc9\xad?'
p634
tp635
Rp636
g14
(g18
S'\xd5`R\x1e(\xc2\xf7\xbf'
p637
tp638
Rp639
tp640
sbsbag1
((lp641
F0.7422484238539145
aF-0.4153038608075233
aF0.7603150143851057
aF0.06738257026533531
aF372.63699804449675
atp642
Rp643
(dp644
g6
g7
(g8
g9
Ntp645
Rp646
(dp647
g13
g14
(g18
S'\xc8\xe8\xf7\xa7gY\xb2?'
p648
tp649
Rp650
sg24
(g14
(g18
S'\xc1\xd6\xff5#\xd6\xa0?'
p651
tp652
Rp653
g14
(g18
S'\xcf\xc0\xb5/\x15\x91\xf1\xbf'
p654
tp655
Rp656
tp657
sbsbag1
((lp658
F0.7449514198913169
aF-0.44620493391594324
aF0.7556509033220515
aF0.18633685578865014
aF360.53210110346873
atp659
Rp660
(dp661
g6
g7
(g8
g9
Ntp662
Rp663
(dp664
g13
g14
(g18
S'\xfc\xb0\x06\n\x15\xec\xaf?'
p665
tp666
Rp667
sg24
(g14
(g18
S'Qqs%aT\x84?'
p668
tp669
Rp670
g14
(g18
S'P\x1dGl\x93A\xea\xbf'
p671
tp672
Rp673
tp674
sbsbag1
((lp675
F0.7422919968494522
aF-0.4387782945525912
aF0.9949997331973397
aF0.7696375546215305
aF412.9879592043855
atp676
Rp677
(dp678
g6
g7
(g8
g9
Ntp679
Rp680
(dp681
g13
Finf
sg24
(g14
(g18
S'`\xc7Q\x98\xe1\x00\xe2<'
p682
tp683
Rp684
F-0.0
tp685
sbsba.