(lp0
cdeap.creator
Individual
p1
((lp2
F0.49382773875251534
aF-0.7811498829203402
aF0.819221987348355
aF0.04037175973076045
aF412.24220093546916
atp3
Rp4
(dp5
S'fitness'
p6
ccopy_reg
_reconstructor
p7
(cdeap.creator
FitnessMin
p8
c__builtin__
object
p9
Ntp10
Rp11
(dp12
S'crowding_dist'
p13
Finf
sS'wvalues'
p14
(cnumpy.core.multiarray
scalar
p15
(cnumpy
dtype
p16
(S'f8'
p17
I0
I1
tp18
Rp19
(I3
S'<'
p20
NNNI-1
I-1
I0
tp21
bS'\xb5\x10_k\xf5\x9d\xdc?'
p22
tp23
Rp24
g15
(g19
S'"\xbe{Y\xcfQ:\xc0'
p25
tp26
Rp27
tp28
sbsbag1
((lp29
F0.5048836271612224
aF-0.7898965086279991
aF0.8184011342739528
aF0.029697664854870486
aF412.24220093546916
atp30
Rp31
(dp32
g6
g7
(g8
g9
Ntp33
Rp34
(dp35
g13
g15
(g19
S'%\xfb\x06u2\xe6\xa0?'
p36
tp37
Rp38
sg14
(g15
(g19
S'\x805\xe8\x8eq-\xdc?'
p39
tp40
Rp41
g15
(g19
S"')b\xfevo9\xc0"
p42
tp43
Rp44
tp45
sbsbag1
((lp46
F0.5197095728825727
aF-0.8121102219726394
aF0.8183968072043272
aF0.04037175973076045
aF412.3903544359032
atp47
Rp48
(dp49
g6
g7
(g8
g9
Ntp50
Rp51
(dp52
g13
g15
(g19
S'^\x80\xcc%h\x90\x9f?'
p53
tp54
Rp55
sg14
(g15
(g19
S'(*\xe0\x98L\xa9\xdb?'
p56
tp57
Rp58
g15
(g19
S'\xe5{\xec\x16\x8e_8\xc0'
p59
tp60
Rp61
tp62
sbsbag1
((lp63
F0.5197095728825727
aF-0.7811498829203402
aF0.819221987348355
aF0.04037175973076045
aF412.24220093546916
atp64
Rp65
(dp66
g6
g7
(g8
g9
Ntp67
Rp68
(dp69
g13
g15
(g19
S'H\xedJ\x1cM$\xa8?'
p70
tp71
Rp72
sg14
(g15
(g19
S'W\xdc\xf7\xa7\xdd\x97\xdb?'
p73
tp74
Rp75
g15
(g19
S'\x84F\xd8K\xa8Y8\xc0'
p76
tp77
Rp78
tp79
sbsbag1
((lp80
F0.5441356654022723
aF-0.696278468499586
aF0.8256771090000206
aF0.004926119578067045
aF411.9703397881824
atp81
Rp82
(dp83
g6
g7
(g8
g9
Ntp84
Rp85
(dp86
g13
g15
(g19
S'\x0f\xe8\xbe\x9c\x8d:\xa8?'
p87
tp88
Rp89
sg14
(g15
(g19
S'\xb2\xd1!\x18m\x99\xda?'
p90
tp91
Rp92
g15
(g19
S'\xea\x08n\x133\xde6\xc0'
p93
tp94
Rp95
tp96
sbsbag1
((lp97
F0.5441356654022723
aF-0.696278468499586
aF0.8256771090000206
aF0.006455174334371977
aF412.9452362044039
atp98
Rp99
(dp100
g6
g7
(g8
g9
Ntp101
Rp102
(dp103
g13
g15
(g19
S'\xaa\xc5\x91\x1c\x93#\x9f?'
p104
tp105
Rp106
sg14
(g15
(g19
S'\xe5\xc8\xb9\xact\x8a\xda?'
p107
tp108
Rp109
g15
(g19
S'P\xda\x1a\xb8\xbf\xd36\xc0'
p110
tp111
Rp112
tp113
sbsbag1
((lp114
F0.5673969668747131
aF-0.5507430257428703
aF0.8379888376459274
aF0.05095480546807568
aF412.2918155932933
atp115
Rp116
(dp117
g6
g7
(g8
g9
Ntp118
Rp119
(dp120
g13
g15
(g19
S'\xbc\x1cO\xecI\t\xab?'
p121
tp122
Rp123
sg14
(g15
(g19
S'\x81\r,\x04\x18\xfb\xd9?'
p124
tp125
Rp126
g15
(g19
S'q\xce\x9a\xd5\t\xd65\xc0'
p127
tp128
Rp129
tp130
sbsbag1
((lp131
F0.5893324553096605
aF-0.5716700471871675
aF0.8379879207769365
aF0.050896319594319346
aF412.2918155932933
atp132
Rp133
(dp134
g6
g7
(g8
g9
Ntp135
Rp136
(dp137
g13
g15
(g19
S'\xd4\xf7<9*p\xad?'
p138
tp139
Rp140
sg14
(g15
(g19
S'\xfe\x8a\xd4\xde\x19R\xd9?'
p141
tp142
Rp143
g15
(g19
S'\xfcZU\xc3Ll4\xc0'
p144
tp145
Rp146
tp147
sbsbag1
((lp148
F0.6056126433230465
aF-0.5721795460342247
aF0.8348057578418504
aF0.0317374959431161
aF412.9183548637127
atp149
Rp150
(dp151
g6
g7
(g8
g9
Ntp152
Rp153
(dp154
g13
g15
(g19
S'\x0egh\xdeZ\x83\xa8?'
p155
tp156
Rp157
sg14
(g15
(g19
S'\x8f3\xbc\xe8\rm\xd8?'
p158
tp159
Rp160
g15
(g19
S'\x7f+\xcf\xb0\xb9\xf62\xc0'
p161
tp162
Rp163
tp164
sbsbag1
((lp165
F0.5948884319168364
aF-0.7504901030444242
aF0.8149391080765217
aF0.033735550314276656
aF412.95029476898515
atp166
Rp167
(dp168
g6
g7
(g8
g9
Ntp169
Rp170
(dp171
g13
g15
(g19
S'\xbe1\xf8!\x06\x10\x9f?'
p172
tp173
Rp174
sg14
(g15
(g19
S't\xd5\x82T\xca\xc6\xd7?'
p175
tp176
Rp177
g15
(g19
S'\r\x8e\xc5\x9d\x8d.2\xc0'
p178
tp179
Rp180
tp181
sbsbag1
((lp182
F0.6002283505852882
aF-0.6417141699828179
aF0.8149391080765217
aF0.03369245331497197
aF412.95130526501003
atp183
Rp184
(dp185
g6
g7
(g8
g9
Ntp186
Rp187
(dp188
g13
g15
(g19
S'\xc8\xff<\x86|+\xa6?'
p189
tp190
Rp191
sg14
(g15
(g19
S'l\xcf\xe3\xcd\x13/\xd7?'
p192
tp193
Rp194
g15
(g19
S'v\xb7\x8b\xf3%\x7f1\xc0'
p195
tp196
Rp197
tp198
sbsbag1
((lp199
F0.6038861556137064
aF-0.5407886482447162
aF0.8149391080765217
aF0.031867814768594835
aF412.87156863803233
atp200
Rp201
(dp202
g6
g7
(g8
g9
Ntp203
Rp204
(dp205
g13
g15
(g19
S'\x11\x94\x17L\xed!\xa5?'
p206
tp207
Rp208
sg14
(g15
(g19
S'5P\x19)%5\xd6?'
p209
tp210
Rp211
g15
(g19
S'\x13\x1a\xa1-\xd2\xe30\xc0'
p212
tp213
Rp214
tp215
sbsbag1
((lp216
F0.6014878561520951
aF-0.6952018010052142
aF0.806108688451057
aF0.033767082387469394
aF412.91083604921675
atp217
Rp218
(dp219
g6
g7
(g8
g9
Ntp220
Rp221
(dp222
g13
g15
(g19
S'\xaejp\xa2 G\xa6?'
p223
tp224
Rp225
sg14
(g15
(g19
S']i\xcc\x08%\xe6\xd5?'
p226
tp227
Rp228
g15
(g19
S'Vx]iy\x810\xc0'
p229
tp230
Rp231
tp232
sbsbag1
((lp233
F0.6578999662410586
aF-0.5647628999864139
aF0.8403547633301296
aF0.17498682767044763
aF412.969880442198
atp234
Rp235
(dp236
g6
g7
(g8
g9
Ntp237
Rp238
(dp239
g13
g15
(g19
S'\xb62\xcc\x18s-\xa2?'
p240
tp241
Rp242
sg14
(g15
(g19
S'\xeeNj\xde\xeb\x9f\xd5?'
p243
tp244
Rp245
g15
(g19
S'mk\x89eqE.\xc0'
p246
tp247
Rp248
tp249
sbsbag1
((lp250
F0.6597591630843378
aF-0.5725617712823162
aF0.8403547633301296
aF0.16191386925181683
aF413.0551623534065
atp251
Rp252
(dp253
g6
g7
(g8
g9
Ntp254
Rp255
(dp256
g13
g15
(g19
S'L\xce\xa9#\xd6=\x9d?'
p257
tp258
Rp259
sg14
(g15
(g19
S'\xa2\x10\xe4\xf7\xb7y\xd5?'
p260
tp261
Rp262
g15
(g19
S'\xb8\x8f\x89\x89\x8a\r.\xc0'
p263
tp264
Rp265
tp266
sbsbag1
((lp267
F0.6591562702949577
aF-0.5719198679257227
aF0.8323874384838889
aF0.03999022013069764
aF412.85557533975714
atp268
Rp269
(dp270
g6
g7
(g8
g9
Ntp271
Rp272
(dp273
g13
g15
(g19
S'B\x9aJB\xb0)\x9c?'
p274
tp275
Rp276
sg14
(g15
(g19
S'^n\x1d\x11\xdc\xc9\xd4?'
p277
tp278
Rp279
g15
(g19
S'\x06?\x16\t\x92\xcd,\xc0'
p280
tp281
Rp282
tp283
sbsbag1
((lp284
F0.6580710250957833
aF-0.6872433091861367
aF0.8167996932205275
aF0.15032660407932544
aF412.994845850447
atp285
Rp286
(dp287
g6
g7
(g8
g9
Ntp288
Rp289
(dp290
g13
g15
(g19
S'\xf2\x9c\x0bj\x0e\x8b\xa0?'
p291
tp292
Rp293
sg14
(g15
(g19
S'3\x12\x86\x81\xee\xf3\xd3?'
p294
tp295
Rp296
g15
(g19
S'\xa5\xb8\x02\xcc*j*\xc0'
p297
tp298
Rp299
tp300
sbsbag1
((lp301
F0.6578999662410586
aF-0.6872433091861367
aF0.8167996932205275
aF0.15032660407932544
aF412.8652581514455
atp302
Rp303
(dp304
g6
g7
(g8
g9
Ntp305
Rp306
(dp307
g13
g15
(g19
S"'\xcf\xc6\xda\xa8\x0f\xa0?"
p308
tp309
Rp310
sg14
(g15
(g19
S'\x83\xaa\xd1\x19Z\xec\xd3?'
p311
tp312
Rp313
g15
(g19
S'&\xca\xa2\xf5\xf2f*\xc0'
p314
tp315
Rp316
tp317
sbsbag1
((lp318
F0.6640144849035429
aF-0.5407886482447162
aF0.8149391080765217
aF0.03211472778406102
aF412.87156863803233
atp319
Rp320
(dp321
g6
g7
(g8
g9
Ntp322
Rp323
(dp324
g13
g15
(g19
S'\xe0\x19S\xa7\x0f9\xad?'
p325
tp326
Rp327
sg14
(g15
(g19
S'xg{\xa8\xae\x19\xd3?'
p328
tp329
Rp330
g15
(g19
S'RC\x8e*-\xae(\xc0'
p331
tp332
Rp333
tp334
sbsbag1
((lp335
F0.6927889159874894
aF-0.5953598515023513
aF0.8291183737086731
aF0.014948194250056075
aF411.3948411129077
atp336
Rp337
(dp338
g6
g7
(g8
g9
Ntp339
Rp340
(dp341
g13
g15
(g19
S'\xe0\xc7K\xc8\xd5\xe7\xa4?'
p342
tp343
Rp344
sg14
(g15
(g19
S'\x04\xb7\xd1A\xebm\xd1?'
p345
tp346
Rp347
g15
(g19
S'S&@\xdd\x1f\x97&\xc0'
p348
tp349
Rp350
tp351
sbsbag1
((lp352
F0.6967834837162271
aF-0.5826374607656355
aF0.8189412691443111
aF0.014948194250056075
aF411.3948411129077
atp353
Rp354
(dp355
g6
g7
(g8
g9
Ntp356
Rp357
(dp358
g13
g15
(g19
S'S=\x98\xba\x13^\x9c?'
p359
tp360
Rp361
sg14
(g15
(g19
S'\x85\x9b\xd0\x86\x82\x8b\xd0?'
p362
tp363
Rp364
g15
(g19
S'pc^\xf1\xc66$\xc0'
p365
tp366
Rp367
tp368
sbsbag1
((lp369
F0.6967834837162271
aF-0.5826374607656355
aF0.8189412691443111
aF0.014948194250056075
aF411.3948411129077
atp370
Rp371
(dp372
g6
g7
(g8
g9
Ntp373
Rp374
(dp375
g13
g15
(g19
S'\xfd\xdd"\xc5_?\x9c?'
p376
tp377
Rp378
sg14
(g15
(g19
S'\x85\x9b\xd0\x86\x82\x8b\xd0?'
p379
tp380
Rp381
g15
(g19
S'pc^\xf1\xc66$\xc0'
p382
tp383
Rp384
tp385
sbsbag1
((lp386
F0.7029677991759161
aF-0.5522583691659075
aF0.8138883305172486
aF0.14930528890859784
aF412.323037516265
atp387
Rp388
(dp389
g6
g7
(g8
g9
Ntp390
Rp391
(dp392
g13
g15
(g19
S'\x00\x87\xdbM\xd42\xa0?'
p393
tp394
Rp395
sg14
(g15
(g19
S'\xf1\x01\xde\xa3&\xd8\xcf?'
p396
tp397
Rp398
g15
(g19
S'*\xdbw\\\x7fW"\xc0'
p399
tp400
Rp401
tp402
sbsbag1
((lp403
F0.7035056054293954
aF-0.553737181985129
aF0.806108688451057
aF0.005190709693361783
aF411.49380622700363
atp404
Rp405
(dp406
g6
g7
(g8
g9
Ntp407
Rp408
(dp409
g13
g15
(g19
S'\x88\xb6\x9f\xb1\x84\xdd\x9d?'
p410
tp411
Rp412
sg14
(g15
(g19
S'B^\xc9\xe90\x1a\xce?'
p413
tp414
Rp415
g15
(g19
S'P\xd0\xd1\xac\xf7\xec \xc0'
p416
tp417
Rp418
tp419
sbsbag1
((lp420
F0.703494254188994
aF-0.553737181985129
aF0.806108688451057
aF0.039675895354548726
aF411.47351311077296
atp421
Rp422
(dp423
g6
g7
(g8
g9
Ntp424
Rp425
(dp426
g13
g15
(g19
S'\xed\x96L\x81\x01\xb9\x9f?'
p427
tp428
Rp429
sg14
(g15
(g19
S'M\xc6\x8b\x97\x11\x17\xce?'
p430
tp431
Rp432
g15
(g19
S'\x9c\xe6\xf8\xee{\xe2 \xc0'
p433
tp434
Rp435
tp436
sbsbag1
((lp437
F0.7040108892551677
aF-0.5719259299043541
aF0.7958340411887064
aF0.04382691895623464
aF412.1600371777625
atp438
Rp439
(dp440
g6
g7
(g8
g9
Ntp441
Rp442
(dp443
g13
g15
(g19
S'\xd1\xe7\xadg\x11\xbb\xb3?'
p444
tp445
Rp446
sg14
(g15
(g19
S'\x9f\xb0\xde\x01\x95m\xcc?'
p447
tp448
Rp449
g15
(g19
S'\xc2{\x93\x80zh\x1e\xc0'
p450
tp451
Rp452
tp453
sbsbag1
((lp454
F0.7022843975118573
aF-0.5405869303280961
aF0.7954230080946968
aF0.04389671646249254
aF405.4394650593253
atp455
Rp456
(dp457
g6
g7
(g8
g9
Ntp458
Rp459
(dp460
g13
g15
(g19
S'd\x90y\xc8\xfb\xed\xb5?'
p461
tp462
Rp463
sg14
(g15
(g19
S'\x1bZ\x84\xc3\x97\\\xc8?'
p464
tp465
Rp466
g15
(g19
S'&4\xe8\xcd\x04\x14\x1c\xc0'
p467
tp468
Rp469
tp470
sbsbag1
((lp471
F0.7208300323791839
aF-0.6776748472897738
aF0.7813174013926452
aF0.08551914563891728
aF412.2917708041339
atp472
Rp473
(dp474
g6
g7
(g8
g9
Ntp475
Rp476
(dp477
g13
g15
(g19
S'`Az\x84`\x9e\xb0?'
p478
tp479
Rp480
sg14
(g15
(g19
S'\xc6.\xf3N\xadq\xc7?'
p481
tp482
Rp483
g15
(g19
S'\n\xf6y\xff\xfe\x89\x15\xc0'
p484
tp485
Rp486
tp487
sbsbag1
((lp488
F0.7270386853638647
aF-0.49783614749205574
aF0.7823475844671145
aF0.018856777153245546
aF412.3001819965186
atp489
Rp490
(dp491
g6
g7
(g8
g9
Ntp492
Rp493
(dp494
g13
g15
(g19
S'\xf8T5C\x0b4\xa6?'
p495
tp496
Rp497
sg14
(g15
(g19
S'\x9d\x9d\x08?\xf7\xec\xc5?'
p498
tp499
Rp500
g15
(g19
S'\xc4\x14\xf6\xc5\xf8\xe3\x12\xc0'
p501
tp502
Rp503
tp504
sbsbag1
((lp505
F0.7270386853638647
aF-0.49783614749205574
aF0.7823475844671145
aF0.018856777153245546
aF412.3001819965186
atp506
Rp507
(dp508
g6
g7
(g8
g9
Ntp509
Rp510
(dp511
g13
g15
(g19
S'\x00C]\x98\x00\xca\x9e?'
p512
tp513
Rp514
sg14
(g15
(g19
S'\x9d\x9d\x08?\xf7\xec\xc5?'
p515
tp516
Rp517
g15
(g19
S'\xc4\x14\xf6\xc5\xf8\xe3\x12\xc0'
p518
tp519
Rp520
tp521
sbsbag1
((lp522
F0.7376664835353952
aF-0.553737181985129
aF0.7794676040353852
aF0.09087072724373114
aF411.47351311077296
atp523
Rp524
(dp525
g6
g7
(g8
g9
Ntp526
Rp527
(dp528
g13
g15
(g19
S'\xa8\xd3\xf4\xb6\xd1\xf0\xaf?'
p529
tp530
Rp531
sg14
(g15
(g19
S'x\\\x154\xc9f\xc2?'
p532
tp533
Rp534
g15
(g19
S'\xb4\xa7\x1fX\x8a\xb4\x0e\xc0'
p535
tp536
Rp537
tp538
sbsbag1
((lp539
F0.7379282316793739
aF-0.55389540258948
aF0.7733026005653985
aF0.09238303824479543
aF411.47351311077296
atp540
Rp541
(dp542
g6
g7
(g8
g9
Ntp543
Rp544
(dp545
g13
g15
(g19
S'\xe5\x17\nV\x94\xaa\xa4?'
p546
tp547
Rp548
sg14
(g15
(g19
S'\xc5\xc4\xf8\xcf\xad\xbb\xc1?'
p549
tp550
Rp551
g15
(g19
S'Z\xc4s\xd8\x19\xef\n\xc0'
p552
tp553
Rp554
tp555
sbsbag1
((lp556
F0.7376664835353952
aF-0.5518110375961176
aF0.765175183286283
aF0.09087072724373114
aF411.47351311077296
atp557
Rp558
(dp559
g6
g7
(g8
g9
Ntp560
Rp561
(dp562
g13
g15
(g19
S'\xac\x04\x81\x07\x9a2\xad?'
p563
tp564
Rp565
sg14
(g15
(g19
S'\xaa~\xee\xda\xb3$\xc0?'
p566
tp567
Rp568
g15
(g19
S'\xb2\xf6\x03\x82\xcd\x03\x06\xc0'
p569
tp570
Rp571
tp572
sbsbag1
((lp573
F0.7437822726758323
aF-0.5715940514980197
aF0.7597078173125801
aF0.03385043853972854
aF412.2541007401498
atp574
Rp575
(dp576
g6
g7
(g8
g9
Ntp577
Rp578
(dp579
g13
g15
(g19
S'\xa2\x06\xe7\x1f\xa2F\xab?'
p580
tp581
Rp582
sg14
(g15
(g19
S"\xbd\xeb'\xc2]#\xbc?"
p583
tp584
Rp585
g15
(g19
S'\xda\xf5\x19\xdf\x1af\x00\xc0'
p586
tp587
Rp588
tp589
sbsbag1
((lp590
F0.7448964367799272
aF-0.49524519620751717
aF0.7572032553228456
aF0.005159781186766087
aF412.9676064168107
atp591
Rp592
(dp593
g6
g7
(g8
g9
Ntp594
Rp595
(dp596
g13
g15
(g19
S'\xee\x0f\xf7\x00\xe9w\x9c?'
p597
tp598
Rp599
sg14
(g15
(g19
S'\x83?\xc7\x8eT\xf0\xb8?'
p600
tp601
Rp602
g15
(g19
S'V=9\xab\x961\xfa\xbf'
p603
tp604
Rp605
tp606
sbsbag1
((lp607
F0.7448964367799272
aF-0.4955568714399771
aF0.7557434754138215
aF0.03947521405769875
aF411.4500619752514
atp608
Rp609
(dp610
g6
g7
(g8
g9
Ntp611
Rp612
(dp613
g13
g15
(g19
S'H1>\xdb#\xfc\xa0?'
p614
tp615
Rp616
sg14
(g15
(g19
S'r;F\x93\xac\x1f\xb5?'
p617
tp618
Rp619
g15
(g19
S'}\x8a\xd5fN\xaf\xf8\xbf'
p620
tp621
Rp622
tp623
sbsbag1
((lp624
F0.7448964367799272
aF-0.49524519620751717
aF0.7572032553228456
aF0.005159781186766087
aF394.53412016001505
atp625
Rp626
(dp627
g6
g7
(g8
g9
Ntp628
Rp629
(dp630
g13
g15
(g19
S'U\xbc}\x04\xbb\xfe\xa0?'
p631
tp632
Rp633
sg14
(g15
(g19
S'\xafr[Z\xe6\\\xb1?'
p634
tp635
Rp636
g15
(g19
S'.\xc5\x87\xbev\x15\xf5\xbf'
p637
tp638
Rp639
tp640
sbsbag1
((lp641
F0.7448964367799272
aF-0.49506616339596804
aF0.7557434754138215
aF0.04093954509322617
aF394.53412016001505
atp642
Rp643
(dp644
g6
g7
(g8
g9
Ntp645
Rp646
(dp647
g13
g15
(g19
S'\x0e\xde\xa7\x9fc\xb3\xb0?'
p648
tp649
Rp650
sg14
(g15
(g19
S'\x9e*N\xf8Cp\xad?'
p651
tp652
Rp653
g15
(g19
S'T\xb0\xe6\xf7 J\xf4\xbf'
p654
tp655
Rp656
tp657
sbsbag1
((lp658
F0.7448964367799272
aF-0.49506616339596804
aF0.7557434754138215
aF0.04093954509322617
aF394.53412016001505
atp659
Rp660
(dp661
g6
g7
(g8
g9
Ntp662
Rp663
(dp664
g13
g15
(g19
S'\x9f\xf23\x91\x1e?\xa2?'
p665
tp666
Rp667
sg14
(g15
(g19
S'\x9e*N\xf8Cp\xad?'
p668
tp669
Rp670
g15
(g19
S'T\xb0\xe6\xf7 J\xf4\xbf'
p671
tp672
Rp673
tp674
sbsbag1
((lp675
F0.7440086448437234
aF-0.5776164901835231
aF0.8852992102490871
aF0.04071756367105139
aF411.3987139645632
atp676
Rp677
(dp678
g6
g7
(g8
g9
Ntp679
Rp680
(dp681
g13
Finf
sg14
(g15
(g19
S'x\xf6\x01\xb4[\xdb\xc8<'
p682
tp683
Rp684
F-0.0
tp685
sbsba.