(lp0
cdeap.creator
Individual
p1
((lp2
F0.5376516946149803
aF0.11151472033809863
aF0.029997441506026932
aF404.6651851822914
atp3
Rp4
(dp5
S'fitness'
p6
ccopy_reg
_reconstructor
p7
(cdeap.creator
FitnessMin
p8
c__builtin__
object
p9
Ntp10
Rp11
(dp12
S'crowding_dist'
p13
Finf
sS'wvalues'
p14
(cnumpy.core.multiarray
scalar
p15
(cnumpy
dtype
p16
(S'f8'
p17
I0
I1
tp18
Rp19
(I3
S'<'
p20
NNNI-1
I-1
I0
tp21
bS'E\x13\xc9S\x01<\xde?'
p22
tp23
Rp24
g15
(g19
S'\xf1\xa6^\x8a7\x95C\xc0'
p25
tp26
Rp27
tp28
sbsbag1
((lp29
F0.5376516946149803
aF0.11151472033809863
aF0.02984744264645016
aF404.6651851822914
atp30
Rp31
(dp32
g6
g7
(g8
g9
Ntp33
Rp34
(dp35
g13
g15
(g19
S'--\xfd\xb2D\x86\xb3?'
p36
tp37
Rp38
sg14
(g15
(g19
S'\xf8\xf0\xb0\xfd.&\xde?'
p39
tp40
Rp41
g15
(g19
S'\xe0lY\x83w\x8fC\xc0'
p42
tp43
Rp44
tp45
sbsbag1
((lp46
F0.43780198207354
aF0.11151472033809863
aF0.02983925186563954
aF411.3877417001718
atp47
Rp48
(dp49
g6
g7
(g8
g9
Ntp50
Rp51
(dp52
g13
g15
(g19
S'\xce^\xae\xbe\x06\xf1\xb4?'
p53
tp54
Rp55
sg14
(g15
(g19
S'7\xc2x\xbc=\x8e\xdd?'
p56
tp57
Rp58
g15
(g19
S'\xea\x0f \xbb\x12\tA\xc0'
p59
tp60
Rp61
tp62
sbsbag1
((lp63
F0.43937835624879185
aF0.12245772389483753
aF0.029619396011882966
aF411.20531869330114
atp64
Rp65
(dp66
g6
g7
(g8
g9
Ntp67
Rp68
(dp69
g13
g15
(g19
S'@\xb1\x97\x9a\x08a\x9e?'
p70
tp71
Rp72
sg14
(g15
(g19
S'\xed\xb1\x8e\xcc^B\xdd?'
p73
tp74
Rp75
g15
(g19
S'\xe3\xe7\xf9\x01\xd5\xee@\xc0'
p76
tp77
Rp78
tp79
sbsbag1
((lp80
F0.3918065405072149
aF0.2906919703340583
aF0.0297910074464489
aF411.2037792607966
atp81
Rp82
(dp83
g6
g7
(g8
g9
Ntp84
Rp85
(dp86
g13
g15
(g19
S'\xf9\xdf\x1d\xcd\xc1\x19\xa1?'
p87
tp88
Rp89
sg14
(g15
(g19
S'\x12\x06\xc5j_\xed\xdc?'
p90
tp91
Rp92
g15
(g19
S'\xf6h+C\xd0G@\xc0'
p93
tp94
Rp95
tp96
sbsbag1
((lp97
F0.38333348279139057
aF0.286830248639957
aF0.029641301279456356
aF406.0167547705637
atp98
Rp99
(dp100
g6
g7
(g8
g9
Ntp101
Rp102
(dp103
g13
g15
(g19
S'\x99\x16\xb8\x0e\xd8y\xa1?'
p104
tp105
Rp106
sg14
(g15
(g19
S'Y.\xa5\x8c\xe1\x99\xdb?'
p107
tp108
Rp109
g15
(g19
S'\xaa@k\xb0\xb0h>\xc0'
p110
tp111
Rp112
tp113
sbsbag1
((lp114
F0.3832020066047294
aF0.5714946003104675
aF0.029812536636490437
aF404.66509694643435
atp115
Rp116
(dp117
g6
g7
(g8
g9
Ntp118
Rp119
(dp120
g13
g15
(g19
S'\xc2\xa7\xe2X\\\x9c\xa7?'
p121
tp122
Rp123
sg14
(g15
(g19
S'v)8hG/\xdb?'
p124
tp125
Rp126
g15
(g19
S"\xfa\xa0^5'\x01>\xc0"
p127
tp128
Rp129
tp130
sbsbag1
((lp131
F0.37868832335617714
aF0.5667931363406404
aF0.02634674065526527
aF411.3929319696999
atp132
Rp133
(dp134
g6
g7
(g8
g9
Ntp135
Rp136
(dp137
g13
g15
(g19
S'\xdc\xd0]\xc3.^\xa2?'
p138
tp139
Rp140
sg14
(g15
(g19
S'+Df}\x12\x1c\xda?'
p141
tp142
Rp143
g15
(g19
S'\x85\xd9u\x81\x8d\xba<\xc0'
p144
tp145
Rp146
tp147
sbsbag1
((lp148
F0.37868832335617714
aF0.5910466745772212
aF0.02634378142623396
aF410.38899306908945
atp149
Rp150
(dp151
g6
g7
(g8
g9
Ntp152
Rp153
(dp154
g13
g15
(g19
S'\xb3\xa3;\x14\xb3B\xa4?'
p155
tp156
Rp157
sg14
(g15
(g19
S'hs\x7fU\xc1\xea\xd9?'
p158
tp159
Rp160
g15
(g19
S'\xf6\x93[D\x14\x98<\xc0'
p161
tp162
Rp163
tp164
sbsbag1
((lp165
F0.32898093103034093
aF0.597428379727858
aF0.02642541946903433
aF408.69780268926706
atp166
Rp167
(dp168
g6
g7
(g8
g9
Ntp169
Rp170
(dp171
g13
g15
(g19
S'\x15j\x83\xd6\xde<\xad?'
p172
tp173
Rp174
sg14
(g15
(g19
S'\xcd \xdb/W\x90\xd9?'
p175
tp176
Rp177
g15
(g19
S'\xd5\x00B\xff\xc01:\xc0'
p178
tp179
Rp180
tp181
sbsbag1
((lp182
F0.30296864625601705
aF0.5885079252279916
aF0.026424146135250536
aF410.39902815383545
atp183
Rp184
(dp185
g6
g7
(g8
g9
Ntp186
Rp187
(dp188
g13
g15
(g19
S'\xe1\xbaL\xbd\xfcY\xa0?'
p189
tp190
Rp191
sg14
(g15
(g19
S'.\xe2\xe2\xb1Y\xde\xd8?'
p192
tp193
Rp194
g15
(g19
S'b\xbb\xce\xd7\xb2\xfb8\xc0'
p195
tp196
Rp197
tp198
sbsbag1
((lp199
F0.27630364797429996
aF0.595414907791525
aF0.02486461147027341
aF411.701745263957
atp200
Rp201
(dp202
g6
g7
(g8
g9
Ntp203
Rp204
(dp205
g13
g15
(g19
S'?+\xa7\x8c\x1c<\x9e?'
p206
tp207
Rp208
sg14
(g15
(g19
S'd\x97\xba\x0bE\xb0\xd7?'
p209
tp210
Rp211
g15
(g19
S'<\x1fv\xe8\x96\xac6\xc0'
p212
tp213
Rp214
tp215
sbsbag1
((lp216
F0.27630364797429996
aF0.1320362864198559
aF0.02486461147027341
aF410.0474014719456
atp217
Rp218
(dp219
g6
g7
(g8
g9
Ntp220
Rp221
(dp222
g13
g15
(g19
S'P\x05t\xa5\xc2\xa4\xa2?'
p223
tp224
Rp225
sg14
(g15
(g19
S'\x12.\xa7K\x84\xaf\xd7?'
p226
tp227
Rp228
g15
(g19
S'\xf5\x9f\xef\xe9\x1e\xac6\xc0'
p229
tp230
Rp231
tp232
sbsbag1
((lp233
F0.277398834865742
aF0.5808401179436524
aF0.02486461147027341
aF404.49978985020914
atp234
Rp235
(dp236
g6
g7
(g8
g9
Ntp237
Rp238
(dp239
g13
g15
(g19
S'\xa2\xea\x9e\xc3\x06?\xaf?'
p240
tp241
Rp242
sg14
(g15
(g19
S'\xc5\xbe\xc7p\x8da\xd6?'
p243
tp244
Rp245
g15
(g19
S'\xf4"U9\xfe\x835\xc0'
p246
tp247
Rp248
tp249
sbsbag1
((lp250
F0.24428127237033942
aF0.11836271861477562
aF0.023516698034920475
aF411.4828396146517
atp251
Rp252
(dp253
g6
g7
(g8
g9
Ntp254
Rp255
(dp256
g13
g15
(g19
S'k\x8a\x02@\xa5"\xa2?'
p257
tp258
Rp259
sg14
(g15
(g19
S'\\,=j\xb0\x0e\xd6?'
p260
tp261
Rp262
g15
(g19
S'\xf7\xfa\xc9\xd9L\x004\xc0'
p263
tp264
Rp265
tp266
sbsbag1
((lp267
F0.24428127237033942
aF0.12141712107307427
aF0.023564892941530694
aF407.9183396303648
atp268
Rp269
(dp270
g6
g7
(g8
g9
Ntp271
Rp272
(dp273
g13
g15
(g19
S'\xf0\xa5\xcaj\xe3}\xa0?'
p274
tp275
Rp276
sg14
(g15
(g19
S'}\xb0|\x1b\x9e\xaf\xd5?'
p277
tp278
Rp279
g15
(g19
S'\xe0\xcf\xe3\xe84\xa43\xc0'
p280
tp281
Rp282
tp283
sbsbag1
((lp284
F0.2445897271415529
aF0.5881982870344912
aF0.023564892941530694
aF404.66939644345297
atp285
Rp286
(dp287
g6
g7
(g8
g9
Ntp288
Rp289
(dp290
g13
g15
(g19
S'\xbb\xbf\xbd\xe01\x9c\xa3?'
p291
tp292
Rp293
sg14
(g15
(g19
S'\x1ei\x10fv\xe0\xd4?'
p294
tp295
Rp296
g15
(g19
S'\x03\xd4\x1b\xd8\xe4\x013\xc0'
p297
tp298
Rp299
tp300
sbsbag1
((lp301
F0.23491073130177684
aF0.29730725379074585
aF0.024882670803004072
aF404.6706614936127
atp302
Rp303
(dp304
g6
g7
(g8
g9
Ntp305
Rp306
(dp307
g13
g15
(g19
S'\xd2\x88C%,-\xa6?'
p308
tp309
Rp310
sg14
(g15
(g19
S'Q\x0e\xd8\xe4\xe7K\xd4?'
p311
tp312
Rp313
g15
(g19
S'\xa5?P\x8e\xf3p2\xc0'
p314
tp315
Rp316
tp317
sbsbag1
((lp318
F0.2163541792026864
aF0.5729619775124438
aF0.02409038970847191
aF406.24713104586516
atp319
Rp320
(dp321
g6
g7
(g8
g9
Ntp322
Rp323
(dp324
g13
g15
(g19
S"C\x01'#)I\xb0?"
p325
tp326
Rp327
sg14
(g15
(g19
S'\xfe\nX]\x85\x9c\xd3?'
p328
tp329
Rp330
g15
(g19
S'8<\x9c\xb8\xf8@1\xc0'
p331
tp332
Rp333
tp334
sbsbag1
((lp335
F0.21304922921749742
aF0.5730546038468759
aF0.01985643425243071
aF410.16827082800614
atp336
Rp337
(dp338
g6
g7
(g8
g9
Ntp339
Rp340
(dp341
g13
g15
(g19
S'\xb5\x10+\x8f\x8f%\xa4?'
p342
tp343
Rp344
sg14
(g15
(g19
S'e\xf1\xc6\xee\xd1a\xd2?'
p345
tp346
Rp347
g15
(g19
S'\xaa\xad\xf4\xb6=\xe0/\xc0'
p348
tp349
Rp350
tp351
sbsbag1
((lp352
F0.21304922921749742
aF0.5730546038468759
aF0.01985643425243071
aF406.53503969982455
atp353
Rp354
(dp355
g6
g7
(g8
g9
Ntp356
Rp357
(dp358
g13
g15
(g19
S'\x1f DK\xb0x\xa9?'
p359
tp360
Rp361
sg14
(g15
(g19
S'V\xb1\x82\xb5QI\xd2?'
p362
tp363
Rp364
g15
(g19
S'\xd1[<u\xa0\xc6/\xc0'
p365
tp366
Rp367
tp368
sbsbag1
((lp369
F0.17019107236301628
aF0.12149956921555506
aF0.019753862360498205
aF411.39603657892417
atp370
Rp371
(dp372
g6
g7
(g8
g9
Ntp373
Rp374
(dp375
g13
g15
(g19
S'\xc8\x02:\x84\xa8\xa6\xab?'
p376
tp377
Rp378
sg14
(g15
(g19
S'?\xb7,/\x07Z\xd1?'
p379
tp380
Rp381
g15
(g19
S'\xd5\xf5\xad\x97u\xc0*\xc0'
p382
tp383
Rp384
tp385
sbsbag1
((lp386
F0.17019107236301628
aF0.12149956921555506
aF0.019452389454852566
aF409.8068894347699
atp387
Rp388
(dp389
g6
g7
(g8
g9
Ntp390
Rp391
(dp392
g13
g15
(g19
S'\x9e\xa3\xae\xcdn\x9e\xa4?'
p393
tp394
Rp395
sg14
(g15
(g19
S'\xd7\x88S=Z\x18\xd1?'
p396
tp397
Rp398
g15
(g19
S'\xacy:\xb8\xcaf*\xc0'
p399
tp400
Rp401
tp402
sbsbag1
((lp403
F0.17019107236301628
aF0.10498397409248322
aF0.01771264802405626
aF411.39603657892417
atp404
Rp405
(dp406
g6
g7
(g8
g9
Ntp407
Rp408
(dp409
g13
g15
(g19
S'>\xfd\n\x92\xe4\xe4\xa1?'
p410
tp411
Rp412
sg14
(g15
(g19
S'\xa0I\x18c\xeaB\xcf?'
p413
tp414
Rp415
g15
(g19
S'\xf9\xa1\xe4\xd6\xc8\xe6(\xc0'
p416
tp417
Rp418
tp419
sbsbag1
((lp420
F0.133920387433195
aF0.11491038595720496
aF0.018736504550646474
aF410.16665799782135
atp421
Rp422
(dp423
g6
g7
(g8
g9
Ntp424
Rp425
(dp426
g13
g15
(g19
S'\xea\x92!\xf77\xb6\xa1?'
p427
tp428
Rp429
sg14
(g15
(g19
S"\xd9\xd42\xce\xf5'\xcf?"
p430
tp431
Rp432
g15
(g19
S'\x89r\x8ex5\x0f&\xc0'
p433
tp434
Rp435
tp436
sbsbag1
((lp437
F0.12797830993752543
aF0.11021254909537143
aF0.018736504550646474
aF409.3112569219723
atp438
Rp439
(dp440
g6
g7
(g8
g9
Ntp441
Rp442
(dp443
g13
g15
(g19
S'\x9a\xbcsi\x87U\xa5?'
p444
tp445
Rp446
sg14
(g15
(g19
S'\xfc\xf8]\x89\x97\xfc\xcd?'
p447
tp448
Rp449
g15
(g19
S'\xe3\xc7|\xa1\xba\xf3$\xc0'
p450
tp451
Rp452
tp453
sbsbag1
((lp454
F0.10729383023462452
aF0.5641413408580225
aF0.017711648415767067
aF411.3665880465624
atp455
Rp456
(dp457
g6
g7
(g8
g9
Ntp458
Rp459
(dp460
g13
g15
(g19
S'\xdf7\xc5\xe2\xc4\xa8\x9b?'
p461
tp462
Rp463
sg14
(g15
(g19
S'\xcd\xe0\xad\x8e\x8a\x10\xcb?'
p464
tp465
Rp466
g15
(g19
S'\x98\x1d\xba\xef\xaa\xe1!\xc0'
p467
tp468
Rp469
tp470
sbsbag1
((lp471
F0.10379683342319417
aF0.5739555958200007
aF0.017623355316262763
aF410.1784444493353
atp472
Rp473
(dp474
g6
g7
(g8
g9
Ntp475
Rp476
(dp477
g13
g15
(g19
S'\xf8\xc4@\xd7\x80b\x9c?'
p478
tp479
Rp480
sg14
(g15
(g19
S'\xc3e\x8a\xd2\xfd\\\xca?'
p481
tp482
Rp483
g15
(g19
S'\xb2t\xf6o\x9b$!\xc0'
p484
tp485
Rp486
tp487
sbsbag1
((lp488
F0.10379683342319417
aF0.5883815694800553
aF0.01601039316645651
aF410.1784444493353
atp489
Rp490
(dp491
g6
g7
(g8
g9
Ntp492
Rp493
(dp494
g13
g15
(g19
S'"h\x07<\x8c\xe6\xa0?'
p495
tp496
Rp497
sg14
(g15
(g19
S'\x822)\xa9\x86\x97\xc8?'
p498
tp499
Rp500
g15
(g19
S'\xffUv\x9b\xd2\xeb\x1e\xc0'
p501
tp502
Rp503
tp504
sbsbag1
((lp505
F0.10005801592875116
aF0.11732787717374452
aF0.014415367476032682
aF411.3941640444656
atp506
Rp507
(dp508
g6
g7
(g8
g9
Ntp509
Rp510
(dp511
g13
g15
(g19
S'\xa3\xaf\xed\xa4\xc3\xfa\xa1?'
p512
tp513
Rp514
sg14
(g15
(g19
S'\xd3\xc7\xbcn\x0c\xe6\xc5?'
p515
tp516
Rp517
g15
(g19
S'\xbe\x12\xc7\x8c\xa6\xf2\x1b\xc0'
p518
tp519
Rp520
tp521
sbsbag1
((lp522
F0.10006334325980007
aF0.1174500892897244
aF0.012908668285983029
aF410.40200155930876
atp523
Rp524
(dp525
g6
g7
(g8
g9
Ntp526
Rp527
(dp528
g13
g15
(g19
S'\x12\xc6\xe0[6K\xaa?'
p529
tp530
Rp531
sg14
(g15
(g19
S'\xca\xac\x1f\x13\xb3\xb9\xc3?'
p532
tp533
Rp534
g15
(g19
S'Nk65\xaa{\x1a\xc0'
p535
tp536
Rp537
tp538
sbsbag1
((lp539
F0.1067930857988454
aF0.12876765862370615
aF0.024118782026991935
aF381.53260369955285
atp540
Rp541
(dp542
g6
g7
(g8
g9
Ntp543
Rp544
(dp545
g13
g15
(g19
S'F\xf7\x00\xf1r\x19\xb3?'
p546
tp547
Rp548
sg14
(g15
(g19
S'\x1eS#X\xa0\x0f\xc0?'
p549
tp550
Rp551
g15
(g19
S'\x19\x13\xa41\xe4\xed\x19\xc0'
p552
tp553
Rp554
tp555
sbsbag1
((lp556
F0.10014839878373889
aF0.5812399433216042
aF0.017632695094052696
aF376.91719793701685
atp557
Rp558
(dp559
g6
g7
(g8
g9
Ntp560
Rp561
(dp562
g13
g15
(g19
S'\xfe\xcb\x82>!\xe7\xac?'
p563
tp564
Rp565
sg14
(g15
(g19
S'\x03O\x9b\xaf+e\xb9?'
p566
tp567
Rp568
g15
(g19
S'\xd70\xb5Z{P\x15\xc0'
p569
tp570
Rp571
tp572
sbsbag1
((lp573
F0.10032682377462196
aF0.36181742270511247
aF0.017597701004641062
aF374.3594738335733
atp574
Rp575
(dp576
g6
g7
(g8
g9
Ntp577
Rp578
(dp579
g13
g15
(g19
S'mi\xa8\xbd\x03B\xad?'
p580
tp581
Rp582
sg14
(g15
(g19
S'\xe9\xfe\xc2\x9a\x03\xc3\xb6?'
p583
tp584
Rp585
g15
(g19
S'e\xf3\xa3\x0f\xfb]\x14\xc0'
p586
tp587
Rp588
tp589
sbsbag1
((lp590
F0.10014839878373889
aF0.5985195109352845
aF0.016107194710811408
aF366.5160834050975
atp591
Rp592
(dp593
g6
g7
(g8
g9
Ntp594
Rp595
(dp596
g13
g15
(g19
S'\xd6\x87\x98\xfa\x01"\xb7?'
p597
tp598
Rp599
sg14
(g15
(g19
S'\x90\x1aG)\xdfm\xad?'
p600
tp601
Rp602
g15
(g19
S'\xd3]\xd4]\xcb>\x11\xc0'
p603
tp604
Rp605
tp606
sbsbag1
((lp607
F0.10006350875881666
aF0.4267975107987455
aF0.017632695094052696
aF356.00730309462455
atp608
Rp609
(dp610
g6
g7
(g8
g9
Ntp611
Rp612
(dp613
g13
g15
(g19
S'.\x0b\xc8\x16y\x9c\xa2?'
p614
tp615
Rp616
sg14
(g15
(g19
S'\xb0\x7f\xb3\x1b\x8a3\x98?'
p617
tp618
Rp619
g15
(g19
S'\x86R2q\x87g\x0b\xc0'
p620
tp621
Rp622
tp623
sbsbag1
((lp624
F0.10005818142776776
aF0.10937903959532011
aF0.014113894570387045
aF355.27676620097344
atp625
Rp626
(dp627
g6
g7
(g8
g9
Ntp628
Rp629
(dp630
g13
g15
(g19
S'\xae\xb2\xef\x01[\xf2\x9f?'
p631
tp632
Rp633
sg14
(g15
(g19
S'\x8c\xa9\xbaY\x05U\x96?'
p634
tp635
Rp636
g15
(g19
S'}\xfe\x98\x9dw\xb4\n\xc0'
p637
tp638
Rp639
tp640
sbsbag1
((lp641
F0.10383908372573358
aF0.5858679318108269
aF0.006540814816510401
aF344.60190963029874
atp642
Rp643
(dp644
g6
g7
(g8
g9
Ntp645
Rp646
(dp647
g13
g15
(g19
S'l\xcfT\x05\x13\xd6\xa3?'
p648
tp649
Rp650
sg14
(g15
(g19
S'\x18o\xda\xdd\x17Pg?'
p651
tp652
Rp653
g15
(g19
S'\x143V?\x8d5\x05\xc0'
p654
tp655
Rp656
tp657
sbsbag1
((lp658
F0.10244464042651856
aF0.5821526748519126
aF0.003362277175334504
aF336.7573674076174
atp659
Rp660
(dp661
g6
g7
(g8
g9
Ntp662
Rp663
(dp664
g13
g15
(g19
S'\xf4\x1b\xf6"\xef\xde\xa2?'
p665
tp666
Rp667
sg14
(g15
(g19
S'ic3\xc5x<\x9a>'
p668
tp669
Rp670
g15
(g19
S'|\xd2j\xd4\x1e\xe4\x00\xc0'
p671
tp672
Rp673
tp674
sbsbag1
((lp675
F0.10014990741909877
aF0.5983980748344429
aF0.02607427464541815
aF303.1501720926666
atp676
Rp677
(dp678
g6
g7
(g8
g9
Ntp679
Rp680
(dp681
g13
Finf
sg14
(g15
(g19
S'\x00\x00\x00\x00\x00\x00\x00\x80'
p682
tp683
Rp684
g15
(g19
S'\x93<w\x7f\xff(\xe6\xbe'
p685
tp686
Rp687
tp688
sbsba.