(dp0
S'L_s'
p1
(lp2
F0.223595449392938
aF0.223595449392938
aF0.223595449392938
aF0.223595449392938
aF0.223595449392938
aF0.223595449392938
aF0.223595449392938
aF0.223595449392938
aF0.223595449392938
aF0.223595449392938
aF0.223595449392938
aF0.223595449392938
aF0.223595449392938
aF0.223595449392938
aF0.223595449392938
aF0.223595449392938
aF0.223595449392938
aF0.223595449392938
aF0.223595449392938
aF0.223595449392938
aF0.223595449392938
aF0.223595449392938
aF0.223595449392938
aF0.223595449392938
aF0.223595449392938
aF0.223595449392938
aF0.223595449392938
aF0.223595449392938
aF0.223595449392938
aF0.223595449392938
aF0.223595449392938
aF0.223595449392938
aF0.223595449392938
aF0.223595449392938
aF0.223595449392938
aF0.223595449392938
aF0.223595449392938
aF0.223595449392938
aF0.223595449392938
aF0.223595449392938
aF0.223595449392938
aF0.223595449392938
aF0.223595449392938
aF0.223595449392938
aF0.223595449392938
aF0.223595449392938
aF0.223595449392938
aF0.223595449392938
aF0.223595449392938
aF0.223595449392938
aF0.223595449392938
aF0.223595449392938
aF0.223595449392938
aF0.223595449392938
aF0.223595449392938
aF0.223595449392938
aF0.223595449392938
aF0.223595449392938
aF0.223595449392938
aF0.223595449392938
aF0.223595449392938
aF0.223595449392938
aF0.223595449392938
aF0.223595449392938
aF0.223595449392938
aF0.223595449392938
aF0.223595449392938
aF0.223595449392938
aF0.223595449392938
aF0.223595449392938
aF0.223595449392938
aF0.223595449392938
aF0.223595449392938
aF0.223595449392938
aF0.223595449392938
aF0.223595449392938
aF0.223595449392938
aF0.223595449392938
aF0.223595449392938
aF0.223595449392938
aF0.223595449392938
aF0.223595449392938
aF0.223595449392938
aF0.223595449392938
aF0.223595449392938
aF0.223595449392938
aF0.223595449392938
aF0.223595449392938
aF0.223595449392938
aF0.223595449392938
aF0.223595449392938
aF0.223595449392938
aF0.223595449392938
aF0.223595449392938
aF0.223595449392938
aF0.223595449392938
aF0.223595449392938
aF0.223595449392938
aF0.223595449392938
aF0.223595449392938
aF0.223595449392938
aF0.22359544731130138
aF0.22359544731130138
aF0.22359544731130138
aF0.22359544731130138
aF0.22359544731130138
aF0.22359544731130138
aF0.22359544731130138
aF0.22359544731130138
aF0.22359544731130138
aF0.22359544731130138
aF0.22359544731130138
aF0.22359544731130138
aF0.22359544731130138
aF0.22359544731130138
aF0.22359544731130138
aF0.22359544731130138
aF0.22359544731130138
aF0.22359544731130138
aF0.22359544731130138
aF0.22359544731130138
aF0.22359544731130138
aF0.2235952240919742
aF0.22359522409197416
aF0.22359522409197416
aF0.22359522409197416
aF0.22359522409197416
aF0.22359522409197416
aF0.22359522409197416
aF0.22359453440589686
aF0.2235945344320136
aF0.2235945344320136
aF0.22359314545946168
aF0.22359213370951497
aF0.22359056777444847
aF0.2235881467926405
aF0.22358443558343435
aF0.22357882658523462
aF0.22357050397907094
aF0.22355842113778676
aF0.22354130411793666
aF0.22351769067635277
aF0.22348599842209
aF0.22344459917294524
aF0.22339214299641894
aF0.2233269989470406
aF0.22324749017627493
aF0.22315193843133774
aF0.2230382575571994
aF0.22290363839870053
aF0.22274658305786485
aF0.2225654110229058
aF0.22235802480126554
aF0.22212025572799826
aF0.22184783574959896
aF0.22153423029574823
aF0.22117542480178412
aF0.22079183101861363
aF0.2203655571061284
aF0.21988818986494868
aF0.21931417366457998
aF0.21877358511384376
aF0.21824197752473662
aF0.21771546511801199
aF0.21722049263074983
aF0.2167731942051444
aF0.2163758263361617
aF0.21604271344571122
aF0.21576983360555915
aF0.21555429598436968
aF0.2153903161797325
aF0.2152685754919397
aF0.2151801458362688
aF0.21511714712516225
aF0.21507303692694954
aF0.21504263222241937
aF0.21502197442065688
aF0.2150081266964573
aF0.21499896090348347
aF0.21499296479256497
aF0.21498908181534515
aF0.21498658546595437
aF0.21498498444651068
aF0.2149839530844794
aF0.21498328041249465
aF0.2149828329352978
aF0.21498252771848342
aF0.21498231369136406
aF0.21498215934070147
aF0.21498204499831328
aF0.21498154201638342
aF0.21498154201638342
aF0.21498154201638342
aF0.21498154201638342
aF0.21498154201638342
aF0.21498154201638342
aF0.21498154201638342
aF0.21498154201638342
aF0.21498154201638342
aF0.21498154201638342
aF0.21498154201638342
aF0.21498154201638342
aF0.21498154201638342
aF0.21498154201638342
aF0.21498154201638342
aF0.21498154201638342
aF0.21498154201638342
aF0.21498154201638342
aF0.21498154201638342
aF0.21498154201638342
aF0.21498154201638342
aF0.21498154201638342
aF0.21498154201638342
aF0.21498154219542817
aF0.21498154219542817
aF0.21498154219542814
aF0.21498154219542814
aF0.21498154219542814
aF0.21498154219542814
aF0.21498154219542814
aF0.21498154219542814
aF0.21498154219542814
aF0.21498154219542814
aF0.21498154219542814
aF0.21498154219542814
aF0.21498154219542814
aF0.21498154219542814
aF0.21498154219542814
aF0.21498154219542814
aF0.21498154219542814
aF0.21498154219542814
aF0.21498154219542814
aF0.21498154219542814
aF0.21498154219542814
aF0.21498154219542814
aF0.21498174457717512
aF0.21498174457717512
aF0.21498174457717512
aF0.21498174457717512
aF0.21498174457717512
aF0.21498174457717512
aF0.21498174457717512
aF0.21498174457717512
aF0.21498174457717512
aF0.21498174457717512
aF0.21498174457717512
aF0.21498262671210122
aF0.21498262671210122
aF0.21498262671210114
aF0.21498377885347236
aF0.21498377885347236
aF0.21498556392982876
aF0.21498709444351463
aF0.214989326279838
aF0.2149925786095542
aF0.21499729869004586
aF0.21500410512895635
aF0.21501384350835678
aF0.21502765595792084
aF0.21504706556233302
aF0.21507407368842174
aF0.21511126527680574
aF0.21516191082573974
aF0.2152300461285959
aF0.21532050087721194
aF0.21543883970913477
aF0.21559117671593653
aF0.21578383540289403
aF0.21602028155788877
aF0.21630236905513728
aF0.216634748000077
aF0.21701143500062114
aF0.21742798009494912
aF0.21787955090228014
aF0.21835814334194392
aF0.21883459942288572
aF0.21933257696530425
aF0.21987657460779764
aF0.22032573482157528
aF0.2207367225968542
aF0.2211085895905783
aF0.22146931184295823
aF0.22179619280870008
aF0.22208340898261797
aF0.22234133965497288
aF0.22257228733147796
aF0.22278110042711596
aF0.222968567278203
aF0.22313456881271473
aF0.22328085462584532
aF0.2234106513572199
aF0.22352697796655455
aF0.22359544792998787
aF0.22359544819492683
aF0.2235954482256588
aF0.2235954482531942
aF0.22359544827732536
aF0.22359544829791156
aF0.22359544831485684
aF0.2235954483281176
aF0.22359544833770778
aF0.223595448343702
aF0.22359544834623607
aF0.22359544834550407
aF0.22359544834175285
aF0.223595448335274
aF0.22359544832639372
aF0.22359544831546108
aF0.22359544830283656
aF0.22359544828888012
aF0.22359544827394154
aF0.22359544825835104
aF0.2235954482424129
aF0.22359544830422914
aF0.22359544761500014
aF0.22359544785489904
aF0.22359544825037328
aF0.22359544786694138
aF0.22359544789405797
aF0.2235954479299879
aF0.22359544792998787
aF0.22359544780975613
aF0.22359544813112336
aF0.2235954477734596
aF0.2235954484443736
aF0.22359544825680433
aF0.2235954481022365
aF0.2235954479736886
aF0.22359544789358318
aF0.22359544783833063
aF0.22359544779252521
aF0.22359544775501936
aF0.22359544772500972
aF0.22359544812575788
aF0.22359544768732653
aF0.22359544835985343
aF0.2235954479299879
aF0.2235954479299879
aF0.2235954479299879
aF0.2235954479299879
aF0.2235954479299879
aF0.2235954479299879
aF0.2235954479299879
aF0.2235954479299879
aF0.2235954479299879
aF0.2235954479299879
aF0.2235954479299879
aF0.2235954479299879
aF0.2235954479299879
aF0.2235954479299879
aF0.2235954479299879
aF0.2235954479299879
aF0.2235954479299879
aF0.2235954479299879
aF0.2235954479299879
aF0.2235954479299879
aF0.2235954479299879
aF0.2235954479299879
aF0.2235954479299879
aF0.2235954479299879
aF0.2235954479299879
aF0.2235954479299879
aF0.2235954479299879
aF0.2235954479299879
aF0.2235954479299879
aF0.2235954479299879
aF0.2235954479299879
aF0.2235954479299879
aF0.2235954479299879
aF0.2235954479299879
aF0.2235954479299879
aF0.2235954479299879
aF0.2235954479299879
aF0.2235954479299879
aF0.2235954479299879
aF0.2235954479299879
aF0.2235954479299879
aF0.2235954479299879
aF0.2235954479299879
aF0.2235954479299879
aF0.2235954479299879
aF0.2235954479299879
aF0.2235954479299879
aF0.2235954479299879
aF0.2235954479299879
aF0.2235954479299879
aF0.2235954479299879
aF0.2235954479299879
aF0.2235954479299879
aF0.2235954479299879
aF0.2235954479299879
aF0.2235954479299879
aF0.2235954479299879
aF0.2235954479299879
aF0.2235954479299879
aF0.2235954479299879
aF0.2235954479299879
aF0.2235954479299879
aF0.2235954479299879
aF0.2235954479299879
asS'xi'
p3
(lp4
F1.0
aF1.0
aF1.0
aF1.0
aF1.0
aF1.0
aF1.0
aF1.0
aF1.0
aF1.0
aF1.0
aF1.0
aF1.0
aF1.0
aF1.0
aF1.0
aF1.0
aF1.0
aF1.0
aF1.0
aF1.0
aF1.0
aF1.0
aF1.0
aF1.0
aF1.0
aF1.0
aF1.0
aF1.0
aF1.0
aF1.0
aF1.0
aF1.0
aF1.0
aF1.0
aF1.0
aF1.0
aF1.0
aF1.0
aF1.0
aF1.0
aF1.0
aF1.0
aF1.0
aF1.0
aF1.0
aF1.0
aF1.0
aF1.0
aF1.0
aF1.0
aF1.0
aF1.0
aF1.0
aF1.0
aF1.0
aF1.0
aF1.0
aF1.0
aF1.0
aF1.0
aF1.0
aF1.0
aF1.0
aF1.0
aF1.0
aF1.0
aF1.0
aF1.0
aF1.0
aF1.0
aF1.0
aF1.0
aF1.0
aF1.0
aF1.0
aF1.0
aF1.0
aF1.0
aF1.0
aF1.0
aF1.0
aF1.0
aF1.0
aF1.0
aF1.0
aF1.0
aF1.0
aF1.0
aF1.0
aF1.0
aF1.0
aF1.0
aF1.0
aF1.0
aF1.0
aF1.0
aF1.0
aF1.0
aF1.0
aF1.0
aF0.9999997208606953
aF0.9999997208606953
aF0.9999997208606953
aF0.9999997208606953
aF0.9999997208606953
aF0.9999997208606953
aF0.9999997208606953
aF0.9999997208606953
aF0.9999997208606953
aF0.9999997208606953
aF0.9999997208606953
aF0.9999997208606953
aF0.9999997208606953
aF0.9999997208606953
aF0.9999997208606953
aF0.9999997208606953
aF0.9999997208606953
aF0.9999997208606953
aF0.9999997208606953
aF0.9999997208606953
aF0.9999997208606953
aF0.9999697888513609
aF0.9999697888513609
aF0.9999697888513609
aF0.9999697888513609
aF0.9999697888513609
aF0.9999697888513609
aF0.9999697888513609
aF0.9998773213210744
aF0.9998773213210744
aF0.9998773213210744
aF0.9996911306626067
aF0.9995555435083318
aF0.9993457487860942
aF0.9990215423250511
aF0.9985248884951996
aF0.9977750212322922
aF0.996664038500242
aF0.995054559995968
aF0.9927813276858695
aF0.9896579267148861
aF0.9854876477870451
aF0.9800749789765624
aF0.9732550215581753
aF0.9648537857800399
aF0.9546978202417775
aF0.9426152959636254
aF0.9283957011558333
aF0.9117534274650148
aF0.892526101361294
aF0.8705364308578947
aF0.8455655798197581
aF0.8171789236825585
aF0.7849247912483872
aF0.7481097613287255
aF0.7063030232734856
aF0.6616778500331825
aF0.6123605556305924
aF0.5574781092150223
aF0.4922011418669311
aF0.4305061059896484
aF0.3698654781996651
aF0.30995945479649467
aF0.253703399657208
aF0.2028917857575148
aF0.1578382915527135
aF0.12007261063286324
aF0.08917255240681099
aF0.06479189069537783
aF0.046242572872377555
aF0.032470981789275405
aF0.022467436642948792
aF0.015340662695045061
aF0.010350623484028567
aF0.006911020442707363
aF0.004574049328404626
aF0.003007482892020328
aF0.0019705727481771256
aF0.0012922422306087425
aF0.0008529676985908414
aF0.0005705585454209411
aF0.0003894375728631249
aF0.000272761037552111
aF0.000196662532819407
aF0.00014604003252908045
aF0.00011151126032123921
aF8.729865809630591e-05
aF6.983717451332912e-05
aF5.690177384027446e-05
aF0.0
aF0.0
aF0.0
aF0.0
aF0.0
aF0.0
aF0.0
aF0.0
aF0.0
aF0.0
aF0.0
aF0.0
aF0.0
aF0.0
aF0.0
aF0.0
aF0.0
aF0.0
aF0.0
aF0.0
aF0.0
aF0.0
aF0.0
aF1.73100291516716e-08
aF1.73100291516716e-08
aF1.73100291516716e-08
aF1.73100291516716e-08
aF1.73100291516716e-08
aF1.73100291516716e-08
aF1.73100291516716e-08
aF1.73100291516716e-08
aF1.73100291516716e-08
aF1.73100291516716e-08
aF1.73100291516716e-08
aF1.73100291516716e-08
aF1.73100291516716e-08
aF1.73100291516716e-08
aF1.73100291516716e-08
aF1.73100291516716e-08
aF1.73100291516716e-08
aF1.73100291516716e-08
aF1.73100291516716e-08
aF1.73100291516716e-08
aF1.73100291516716e-08
aF1.73100291516716e-08
aF1.9435656392830087e-05
aF1.9435656392830087e-05
aF1.9435656392830087e-05
aF1.9435656392830087e-05
aF1.9435656392830087e-05
aF1.9435656392830087e-05
aF1.9435656392830087e-05
aF1.9435656392830087e-05
aF1.9435656392830087e-05
aF1.9435656392830087e-05
aF1.9435656392830087e-05
aF0.00010407527955203564
aF0.00010407527955203564
aF0.00010407527955203564
aF0.00021462158456584635
aF0.00021462158456584635
aF0.00038589632855508054
aF0.0005327470134240847
aF0.0007468875946655114
aF0.0010589415003425648
aF0.0015118202188487734
aF0.002164874114009247
aF0.0030992244427744584
aF0.004424439931846015
aF0.006286620205890341
aF0.008877726452359838
aF0.0124456605074752
aF0.017304021553862948
aF0.023839714748035513
aF0.03251565553595928
aF0.04386507214990273
aF0.05847368719042628
aF0.07694709483080045
aF0.09964111365157176
aF0.12674771781667024
aF0.15868742535940733
aF0.19492555187031294
aF0.23503740838234013
aF0.2785531964489761
aF0.32470908634753576
aF0.3708046357344173
aF0.41895580987548425
aF0.47137390041937594
aF0.5151339298528408
aF0.555393195426459
aF0.5920502069906414
aF0.6276523597765635
aF0.6601177328809301
aF0.688915451878792
aF0.7149946208488477
aF0.7385682850495577
aF0.7600804812082943
aF0.7796069830321216
aF0.7971431064383524
aF0.8128536627684907
aF0.8270352807616073
aF0.8399638695272507
aF0.8485892480863946
aF0.851099698141898
aF0.8535989280081563
aF0.8560859449607853
aF0.858559669660539
aF0.8610189606404918
aF0.8634626203478585
aF0.8658894036327085
aF0.8682980288952787
aF0.8706871920258621
aF0.8730555831626808
aF0.8754019061590737
aF0.8777249004979233
aF0.880023365228854
aF0.8822961843462456
aF0.8845423528898984
aF0.8867610029522245
aF0.8889514287311908
aF0.8911131097876247
aF0.8932457317529573
aF0.8953492038855005
aF0.8974236803676088
aF0.8994694778992668
aF0.9014874046704714
aF0.9034782954825479
aF0.9054432263374249
aF0.907383736451858
aF0.9093014664383892
aF0.9111983447346005
aF0.9130765476999725
aF0.9149385715426778
aF0.9167869949676406
aF0.9186249610305214
aF0.9204555088328042
aF0.9222822786928855
aF0.9241091458823583
aF0.9259403613718009
aF0.927780596087353
aF0.9296350155397373
aF0.9315093681373207
aF0.9334100945162319
aF0.935344526569213
aF0.9373207686079198
aF0.9393486202750922
aF0.941438776739556
aF0.9436043708591483
aF0.945860528568616
aF0.9482252669926958
aF0.950720024596771
aF0.9533702658226518
aF0.9562058909028002
aF0.9592609478821786
aF0.9625714974451136
aF0.9661692482189378
aF0.9700668137008481
aF0.9742300690175941
aF0.9785410795146547
aF0.9827797590133391
aF0.9866716057586301
aF0.9899970239509667
aF0.9926688197220535
aF0.9947193250084025
aF0.9962429456492964
aF0.9973491325373666
aF0.9981383894096295
aF0.9986938910983444
aF0.9990806980092062
aF0.9993479364692455
aF0.9995317608703433
aF0.9996582007929894
aF0.9997456036084145
aF0.9998066359090291
aF0.9998498810553775
aF0.9998810751857707
aF0.9999040239932705
aF0.9999212520816683
aF0.9999344445884166
aF0.9999447387348914
aF0.999952912928546
aF1.0
aF1.0
aF1.0
aF1.0
aF1.0
aF1.0
aF1.0
aF1.0
aF1.0
aF1.0
aF1.0
aF1.0
aF1.0
aF1.0
aF1.0
aF1.0
aF1.0
aF1.0
aF1.0
aF1.0
aF1.0
aF1.0
aF1.0
aF1.0
aF1.0
aF1.0
aF1.0
aF1.0
aF1.0
asS'T'
p5
(lp6
cnumpy.core.multiarray
scalar
p7
(cnumpy
dtype
p8
(S'f8'
p9
I0
I1
tp10
Rp11
(I3
S'<'
p12
NNNI-1
I-1
I0
tp13
bS'\x00\x00\x00\x00\x00\x80k@'
p14
tp15
Rp16
ag7
(g11
S'u3h\xd9\xf1\x9ck@'
p17
tp18
Rp19
ag7
(g11
S'\xeaf\xd0\xb2\xe3\xb9k@'
p20
tp21
Rp22
ag7
(g11
S'_\x9a8\x8c\xd5\xd6k@'
p23
tp24
Rp25
ag7
(g11
S'\xd4\xcd\xa0e\xc7\xf3k@'
p26
tp27
Rp28
ag7
(g11
S'I\x01\t?\xb9\x10l@'
p29
tp30
Rp31
ag7
(g11
S'\xbe4q\x18\xab-l@'
p32
tp33
Rp34
ag7
(g11
S'3h\xd9\xf1\x9cJl@'
p35
tp36
Rp37
ag7
(g11
S'\xa9\x9bA\xcb\x8egl@'
p38
tp39
Rp40
ag7
(g11
S'\x1e\xcf\xa9\xa4\x80\x84l@'
p41
tp42
Rp43
ag7
(g11
S'\x93\x02\x12~r\xa1l@'
p44
tp45
Rp46
ag7
(g11
S'\x086zWd\xbel@'
p47
tp48
Rp49
ag7
(g11
S'}i\xe20V\xdbl@'
p50
tp51
Rp52
ag7
(g11
S'\xf2\x9cJ\nH\xf8l@'
p53
tp54
Rp55
ag7
(g11
S'g\xd0\xb2\xe39\x15m@'
p56
tp57
Rp58
ag7
(g11
S'\xdc\x03\x1b\xbd+2m@'
p59
tp60
Rp61
ag7
(g11
S'Q7\x83\x96\x1dOm@'
p62
tp63
Rp64
ag7
(g11
S'\xc6j\xebo\x0flm@'
p65
tp66
Rp67
ag7
(g11
S';\x9eSI\x01\x89m@'
p68
tp69
Rp70
ag7
(g11
S'\xb0\xd1\xbb"\xf3\xa5m@'
p71
tp72
Rp73
ag7
(g11
S'%\x05$\xfc\xe4\xc2m@'
p74
tp75
Rp76
ag7
(g11
S'\x9a8\x8c\xd5\xd6\xdfm@'
p77
tp78
Rp79
ag7
(g11
S'\x10l\xf4\xae\xc8\xfcm@'
p80
tp81
Rp82
ag7
(g11
S'\x84\x9f\\\x88\xba\x19n@'
p83
tp84
Rp85
ag7
(g11
S'\xfa\xd2\xc4a\xac6n@'
p86
tp87
Rp88
ag7
(g11
S'o\x06-;\x9eSn@'
p89
tp90
Rp91
ag7
(g11
S'\xe49\x95\x14\x90pn@'
p92
tp93
Rp94
ag7
(g11
S'Ym\xfd\xed\x81\x8dn@'
p95
tp96
Rp97
ag7
(g11
S'\xce\xa0e\xc7s\xaan@'
p98
tp99
Rp100
ag7
(g11
S'C\xd4\xcd\xa0e\xc7n@'
p101
tp102
Rp103
ag7
(g11
S'\xb8\x076zW\xe4n@'
p104
tp105
Rp106
ag7
(g11
S'-;\x9eSI\x01o@'
p107
tp108
Rp109
ag7
(g11
S'\xa2n\x06-;\x1eo@'
p110
tp111
Rp112
ag7
(g11
S'\x17\xa2n\x06-;o@'
p113
tp114
Rp115
ag7
(g11
S'\x8c\xd5\xd6\xdf\x1eXo@'
p116
tp117
Rp118
ag7
(g11
S'\x01\t?\xb9\x10uo@'
p119
tp120
Rp121
ag7
(g11
S'v<\xa7\x92\x02\x92o@'
p122
tp123
Rp124
ag7
(g11
S'\xeco\x0fl\xf4\xaeo@'
p125
tp126
Rp127
ag7
(g11
S'`\xa3wE\xe6\xcbo@'
p128
tp129
Rp130
ag7
(g11
S'\xd6\xd6\xdf\x1e\xd8\xe8o@'
p131
tp132
Rp133
ag7
(g11
S'%\x05$\xfc\xe4\x02p@'
p134
tp135
Rp136
ag7
(g11
S'\xe0\x1e\xd8\xe8]\x11p@'
p137
tp138
Rp139
ag7
(g11
S'\x9a8\x8c\xd5\xd6\x1fp@'
p140
tp141
Rp142
ag7
(g11
S'UR@\xc2O.p@'
p143
tp144
Rp145
ag7
(g11
S'\x10l\xf4\xae\xc8<p@'
p146
tp147
Rp148
ag7
(g11
S'\xca\x85\xa8\x9bAKp@'
p149
tp150
Rp151
ag7
(g11
S'\x84\x9f\\\x88\xbaYp@'
p152
tp153
Rp154
ag7
(g11
S'?\xb9\x10u3hp@'
p155
tp156
Rp157
ag7
(g11
S'\xfa\xd2\xc4a\xacvp@'
p158
tp159
Rp160
ag7
(g11
S'\xb4\xecxN%\x85p@'
p161
tp162
Rp163
ag7
(g11
S'o\x06-;\x9e\x93p@'
p164
tp165
Rp166
ag7
(g11
S") \xe1'\x17\xa2p@"
p167
tp168
Rp169
ag7
(g11
S'\xe49\x95\x14\x90\xb0p@'
p170
tp171
Rp172
ag7
(g11
S'\x9eSI\x01\t\xbfp@'
p173
tp174
Rp175
ag7
(g11
S'Ym\xfd\xed\x81\xcdp@'
p176
tp177
Rp178
ag7
(g11
S'\x13\x87\xb1\xda\xfa\xdbp@'
p179
tp180
Rp181
ag7
(g11
S'\xce\xa0e\xc7s\xeap@'
p182
tp183
Rp184
ag7
(g11
S'\x88\xba\x19\xb4\xec\xf8p@'
p185
tp186
Rp187
ag7
(g11
S'C\xd4\xcd\xa0e\x07q@'
p188
tp189
Rp190
ag7
(g11
S'\xfe\xed\x81\x8d\xde\x15q@'
p191
tp192
Rp193
ag7
(g11
S'\xb8\x076zW$q@'
p194
tp195
Rp196
ag7
(g11
S'r!\xeaf\xd02q@'
p197
tp198
Rp199
ag7
(g11
S'-;\x9eSIAq@'
p200
tp201
Rp202
ag7
(g11
S'\xe8TR@\xc2Oq@'
p203
tp204
Rp205
ag7
(g11
S'\xa2n\x06-;^q@'
p206
tp207
Rp208
ag7
(g11
S']\x88\xba\x19\xb4lq@'
p209
tp210
Rp211
ag7
(g11
S'\x17\xa2n\x06-{q@'
p212
tp213
Rp214
ag7
(g11
S'\xd2\xbb"\xf3\xa5\x89q@'
p215
tp216
Rp217
ag7
(g11
S'\x8c\xd5\xd6\xdf\x1e\x98q@'
p218
tp219
Rp220
ag7
(g11
S'G\xef\x8a\xcc\x97\xa6q@'
p221
tp222
Rp223
ag7
(g11
S'\x01\t?\xb9\x10\xb5q@'
p224
tp225
Rp226
ag7
(g11
S'\xbc"\xf3\xa5\x89\xc3q@'
p227
tp228
Rp229
ag7
(g11
S'v<\xa7\x92\x02\xd2q@'
p230
tp231
Rp232
ag7
(g11
S'1V[\x7f{\xe0q@'
p233
tp234
Rp235
ag7
(g11
S'\xeco\x0fl\xf4\xeeq@'
p236
tp237
Rp238
ag7
(g11
S'\xa6\x89\xc3Xm\xfdq@'
p239
tp240
Rp241
ag7
(g11
S'`\xa3wE\xe6\x0br@'
p242
tp243
Rp244
ag7
(g11
S'\x1b\xbd+2_\x1ar@'
p245
tp246
Rp247
ag7
(g11
S'\xd6\xd6\xdf\x1e\xd8(r@'
p248
tp249
Rp250
ag7
(g11
S'\x90\xf0\x93\x0bQ7r@'
p251
tp252
Rp253
ag7
(g11
S'K\nH\xf8\xc9Er@'
p254
tp255
Rp256
ag7
(g11
S'\x05$\xfc\xe4BTr@'
p257
tp258
Rp259
ag7
(g11
S'\xc0=\xb0\xd1\xbbbr@'
p260
tp261
Rp262
ag7
(g11
S'zWd\xbe4qr@'
p263
tp264
Rp265
ag7
(g11
S'5q\x18\xab\xad\x7fr@'
p266
tp267
Rp268
ag7
(g11
S'\xef\x8a\xcc\x97&\x8er@'
p269
tp270
Rp271
ag7
(g11
S'\xaa\xa4\x80\x84\x9f\x9cr@'
p272
tp273
Rp274
ag7
(g11
S'd\xbe4q\x18\xabr@'
p275
tp276
Rp277
ag7
(g11
S'\x1f\xd8\xe8]\x91\xb9r@'
p278
tp279
Rp280
ag7
(g11
S'\xda\xf1\x9cJ\n\xc8r@'
p281
tp282
Rp283
ag7
(g11
S'\x94\x0bQ7\x83\xd6r@'
p284
tp285
Rp286
ag7
(g11
S'N%\x05$\xfc\xe4r@'
p287
tp288
Rp289
ag7
(g11
S'\t?\xb9\x10u\xf3r@'
p290
tp291
Rp292
ag7
(g11
S'\xc4Xm\xfd\xed\x01s@'
p293
tp294
Rp295
ag7
(g11
S'~r!\xeaf\x10s@'
p296
tp297
Rp298
ag7
(g11
S'9\x8c\xd5\xd6\xdf\x1es@'
p299
tp300
Rp301
ag7
(g11
S'\xf3\xa5\x89\xc3X-s@'
p302
tp303
Rp304
ag7
(g11
S'\xae\xbf=\xb0\xd1;s@'
p305
tp306
Rp307
ag7
(g11
S'h\xd9\xf1\x9cJJs@'
p308
tp309
Rp310
ag7
(g11
S'#\xf3\xa5\x89\xc3Xs@'
p311
tp312
Rp313
ag7
(g11
S'\xdd\x0cZv<gs@'
p314
tp315
Rp316
ag7
(g11
S'\x98&\x0ec\xb5us@'
p317
tp318
Rp319
ag7
(g11
S'R@\xc2O.\x84s@'
p320
tp321
Rp322
ag7
(g11
S'\rZv<\xa7\x92s@'
p323
tp324
Rp325
ag7
(g11
S'\xc8s*) \xa1s@'
p326
tp327
Rp328
ag7
(g11
S'\x82\x8d\xde\x15\x99\xafs@'
p329
tp330
Rp331
ag7
(g11
S'<\xa7\x92\x02\x12\xbes@'
p332
tp333
Rp334
ag7
(g11
S'\xf7\xc0F\xef\x8a\xccs@'
p335
tp336
Rp337
ag7
(g11
S'\xb2\xda\xfa\xdb\x03\xdbs@'
p338
tp339
Rp340
ag7
(g11
S'l\xf4\xae\xc8|\xe9s@'
p341
tp342
Rp343
ag7
(g11
S"'\x0ec\xb5\xf5\xf7s@"
p344
tp345
Rp346
ag7
(g11
S"\xe1'\x17\xa2n\x06t@"
p347
tp348
Rp349
ag7
(g11
S'\x9cA\xcb\x8e\xe7\x14t@'
p350
tp351
Rp352
ag7
(g11
S'V[\x7f{`#t@'
p353
tp354
Rp355
ag7
(g11
S'\x11u3h\xd91t@'
p356
tp357
Rp358
ag7
(g11
S'\xcb\x8e\xe7TR@t@'
p359
tp360
Rp361
ag7
(g11
S'\x86\xa8\x9bA\xcbNt@'
p362
tp363
Rp364
ag7
(g11
S'@\xc2O.D]t@'
p365
tp366
Rp367
ag7
(g11
S'\xfb\xdb\x03\x1b\xbdkt@'
p368
tp369
Rp370
ag7
(g11
S'\xb6\xf5\xb7\x076zt@'
p371
tp372
Rp373
ag7
(g11
S'p\x0fl\xf4\xae\x88t@'
p374
tp375
Rp376
ag7
(g11
S"*) \xe1'\x97t@"
p377
tp378
Rp379
ag7
(g11
S'\xe5B\xd4\xcd\xa0\xa5t@'
p380
tp381
Rp382
ag7
(g11
S'\xa0\\\x88\xba\x19\xb4t@'
p383
tp384
Rp385
ag7
(g11
S'Zv<\xa7\x92\xc2t@'
p386
tp387
Rp388
ag7
(g11
S'\x15\x90\xf0\x93\x0b\xd1t@'
p389
tp390
Rp391
ag7
(g11
S'\xcf\xa9\xa4\x80\x84\xdft@'
p392
tp393
Rp394
ag7
(g11
S'\x8a\xc3Xm\xfd\xedt@'
p395
tp396
Rp397
ag7
(g11
S'D\xdd\x0cZv\xfct@'
p398
tp399
Rp400
ag7
(g11
S'\xff\xf6\xc0F\xef\nu@'
p401
tp402
Rp403
ag7
(g11
S'\xb9\x10u3h\x19u@'
p404
tp405
Rp406
ag7
(g11
S"t*) \xe1'u@"
p407
tp408
Rp409
ag7
(g11
S'.D\xdd\x0cZ6u@'
p410
tp411
Rp412
ag7
(g11
S'\xe9]\x91\xf9\xd2Du@'
p413
tp414
Rp415
ag7
(g11
S'\xa4wE\xe6KSu@'
p416
tp417
Rp418
ag7
(g11
S'^\x91\xf9\xd2\xc4au@'
p419
tp420
Rp421
ag7
(g11
S'\x18\xab\xad\xbf=pu@'
p422
tp423
Rp424
ag7
(g11
S'\xd3\xc4a\xac\xb6~u@'
p425
tp426
Rp427
ag7
(g11
S'\x8e\xde\x15\x99/\x8du@'
p428
tp429
Rp430
ag7
(g11
S'H\xf8\xc9\x85\xa8\x9bu@'
p431
tp432
Rp433
ag7
(g11
S'\x03\x12~r!\xaau@'
p434
tp435
Rp436
ag7
(g11
S'\xbd+2_\x9a\xb8u@'
p437
tp438
Rp439
ag7
(g11
S'xE\xe6K\x13\xc7u@'
p440
tp441
Rp442
ag7
(g11
S'2_\x9a8\x8c\xd5u@'
p443
tp444
Rp445
ag7
(g11
S'\xedxN%\x05\xe4u@'
p446
tp447
Rp448
ag7
(g11
S'\xa8\x92\x02\x12~\xf2u@'
p449
tp450
Rp451
ag7
(g11
S'b\xac\xb6\xfe\xf6\x00v@'
p452
tp453
Rp454
ag7
(g11
S'\x1c\xc6j\xebo\x0fv@'
p455
tp456
Rp457
ag7
(g11
S'\xd7\xdf\x1e\xd8\xe8\x1dv@'
p458
tp459
Rp460
ag7
(g11
S'\x92\xf9\xd2\xc4a,v@'
p461
tp462
Rp463
ag7
(g11
S'L\x13\x87\xb1\xda:v@'
p464
tp465
Rp466
ag7
(g11
S'\x06-;\x9eSIv@'
p467
tp468
Rp469
ag7
(g11
S'\xc1F\xef\x8a\xccWv@'
p470
tp471
Rp472
ag7
(g11
S'|`\xa3wEfv@'
p473
tp474
Rp475
ag7
(g11
S'6zWd\xbetv@'
p476
tp477
Rp478
ag7
(g11
S'\xf0\x93\x0bQ7\x83v@'
p479
tp480
Rp481
ag7
(g11
S'\xab\xad\xbf=\xb0\x91v@'
p482
tp483
Rp484
ag7
(g11
S'f\xc7s*)\xa0v@'
p485
tp486
Rp487
ag7
(g11
S" \xe1'\x17\xa2\xaev@"
p488
tp489
Rp490
ag7
(g11
S'\xdb\xfa\xdb\x03\x1b\xbdv@'
p491
tp492
Rp493
ag7
(g11
S'\x96\x14\x90\xf0\x93\xcbv@'
p494
tp495
Rp496
ag7
(g11
S'P.D\xdd\x0c\xdav@'
p497
tp498
Rp499
ag7
(g11
S'\nH\xf8\xc9\x85\xe8v@'
p500
tp501
Rp502
ag7
(g11
S'\xc5a\xac\xb6\xfe\xf6v@'
p503
tp504
Rp505
ag7
(g11
S'\x80{`\xa3w\x05w@'
p506
tp507
Rp508
ag7
(g11
S':\x95\x14\x90\xf0\x13w@'
p509
tp510
Rp511
ag7
(g11
S'\xf4\xae\xc8|i"w@'
p512
tp513
Rp514
ag7
(g11
S'\xaf\xc8|i\xe20w@'
p515
tp516
Rp517
ag7
(g11
S'j\xe20V[?w@'
p518
tp519
Rp520
ag7
(g11
S'$\xfc\xe4B\xd4Mw@'
p521
tp522
Rp523
ag7
(g11
S'\xde\x15\x99/M\\w@'
p524
tp525
Rp526
ag7
(g11
S'\x99/M\x1c\xc6jw@'
p527
tp528
Rp529
ag7
(g11
S'TI\x01\t?yw@'
p530
tp531
Rp532
ag7
(g11
S'\x0ec\xb5\xf5\xb7\x87w@'
p533
tp534
Rp535
ag7
(g11
S'\xc9|i\xe20\x96w@'
p536
tp537
Rp538
ag7
(g11
S'\x84\x96\x1d\xcf\xa9\xa4w@'
p539
tp540
Rp541
ag7
(g11
S'>\xb0\xd1\xbb"\xb3w@'
p542
tp543
Rp544
ag7
(g11
S'\xf8\xc9\x85\xa8\x9b\xc1w@'
p545
tp546
Rp547
ag7
(g11
S'\xb3\xe39\x95\x14\xd0w@'
p548
tp549
Rp550
ag7
(g11
S'n\xfd\xed\x81\x8d\xdew@'
p551
tp552
Rp553
ag7
(g11
S'(\x17\xa2n\x06\xedw@'
p554
tp555
Rp556
ag7
(g11
S'\xe20V[\x7f\xfbw@'
p557
tp558
Rp559
ag7
(g11
S'\x9dJ\nH\xf8\tx@'
p560
tp561
Rp562
ag7
(g11
S'Xd\xbe4q\x18x@'
p563
tp564
Rp565
ag7
(g11
S'\x12~r!\xea&x@'
p566
tp567
Rp568
ag7
(g11
S'\xcc\x97&\x0ec5x@'
p569
tp570
Rp571
ag7
(g11
S'\x87\xb1\xda\xfa\xdbCx@'
p572
tp573
Rp574
ag7
(g11
S'B\xcb\x8e\xe7TRx@'
p575
tp576
Rp577
ag7
(g11
S'\xfc\xe4B\xd4\xcd`x@'
p578
tp579
Rp580
ag7
(g11
S'\xb7\xfe\xf6\xc0Fox@'
p581
tp582
Rp583
ag7
(g11
S'r\x18\xab\xad\xbf}x@'
p584
tp585
Rp586
ag7
(g11
S',2_\x9a8\x8cx@'
p587
tp588
Rp589
ag7
(g11
S'\xe6K\x13\x87\xb1\x9ax@'
p590
tp591
Rp592
ag7
(g11
S'\xa1e\xc7s*\xa9x@'
p593
tp594
Rp595
ag7
(g11
S'\\\x7f{`\xa3\xb7x@'
p596
tp597
Rp598
ag7
(g11
S'\x16\x99/M\x1c\xc6x@'
p599
tp600
Rp601
ag7
(g11
S'\xd0\xb2\xe39\x95\xd4x@'
p602
tp603
Rp604
ag7
(g11
S'\x8b\xcc\x97&\x0e\xe3x@'
p605
tp606
Rp607
ag7
(g11
S'F\xe6K\x13\x87\xf1x@'
p608
tp609
Rp610
ag7
(g11
S'\x00\x00\x00\x00\x00\x00y@'
p611
tp612
Rp613
ag7
(g11
S'\x00\x00\x00\x00\x00\x00y@'
p614
tp615
Rp616
ag7
(g11
S'E\xe6K\x13\x87\xf1x@'
p617
tp618
Rp619
ag7
(g11
S'\x8b\xcc\x97&\x0e\xe3x@'
p620
tp621
Rp622
ag7
(g11
S'\xd0\xb2\xe39\x95\xd4x@'
p623
tp624
Rp625
ag7
(g11
S'\x16\x99/M\x1c\xc6x@'
p626
tp627
Rp628
ag7
(g11
S'[\x7f{`\xa3\xb7x@'
p629
tp630
Rp631
ag7
(g11
S'\xa1e\xc7s*\xa9x@'
p632
tp633
Rp634
ag7
(g11
S'\xe6K\x13\x87\xb1\x9ax@'
p635
tp636
Rp637
ag7
(g11
S',2_\x9a8\x8cx@'
p638
tp639
Rp640
ag7
(g11
S'q\x18\xab\xad\xbf}x@'
p641
tp642
Rp643
ag7
(g11
S'\xb7\xfe\xf6\xc0Fox@'
p644
tp645
Rp646
ag7
(g11
S'\xfc\xe4B\xd4\xcd`x@'
p647
tp648
Rp649
ag7
(g11
S'B\xcb\x8e\xe7TRx@'
p650
tp651
Rp652
ag7
(g11
S'\x87\xb1\xda\xfa\xdbCx@'
p653
tp654
Rp655
ag7
(g11
S'\xcd\x97&\x0ec5x@'
p656
tp657
Rp658
ag7
(g11
S'\x12~r!\xea&x@'
p659
tp660
Rp661
ag7
(g11
S'Wd\xbe4q\x18x@'
p662
tp663
Rp664
ag7
(g11
S'\x9dJ\nH\xf8\tx@'
p665
tp666
Rp667
ag7
(g11
S'\xe20V[\x7f\xfbw@'
p668
tp669
Rp670
ag7
(g11
S'(\x17\xa2n\x06\xedw@'
p671
tp672
Rp673
ag7
(g11
S'm\xfd\xed\x81\x8d\xdew@'
p674
tp675
Rp676
ag7
(g11
S'\xb3\xe39\x95\x14\xd0w@'
p677
tp678
Rp679
ag7
(g11
S'\xf8\xc9\x85\xa8\x9b\xc1w@'
p680
tp681
Rp682
ag7
(g11
S'>\xb0\xd1\xbb"\xb3w@'
p683
tp684
Rp685
ag7
(g11
S'\x83\x96\x1d\xcf\xa9\xa4w@'
p686
tp687
Rp688
ag7
(g11
S'\xc9|i\xe20\x96w@'
p689
tp690
Rp691
ag7
(g11
S'\x0ec\xb5\xf5\xb7\x87w@'
p692
tp693
Rp694
ag7
(g11
S'TI\x01\t?yw@'
p695
tp696
Rp697
ag7
(g11
S'\x99/M\x1c\xc6jw@'
p698
tp699
Rp700
ag7
(g11
S'\xdf\x15\x99/M\\w@'
p701
tp702
Rp703
ag7
(g11
S'$\xfc\xe4B\xd4Mw@'
p704
tp705
Rp706
ag7
(g11
S'j\xe20V[?w@'
p707
tp708
Rp709
ag7
(g11
S'\xaf\xc8|i\xe20w@'
p710
tp711
Rp712
ag7
(g11
S'\xf4\xae\xc8|i"w@'
p713
tp714
Rp715
ag7
(g11
S':\x95\x14\x90\xf0\x13w@'
p716
tp717
Rp718
ag7
(g11
S'\x7f{`\xa3w\x05w@'
p719
tp720
Rp721
ag7
(g11
S'\xc5a\xac\xb6\xfe\xf6v@'
p722
tp723
Rp724
ag7
(g11
S'\nH\xf8\xc9\x85\xe8v@'
p725
tp726
Rp727
ag7
(g11
S'P.D\xdd\x0c\xdav@'
p728
tp729
Rp730
ag7
(g11
S'\x95\x14\x90\xf0\x93\xcbv@'
p731
tp732
Rp733
ag7
(g11
S'\xdb\xfa\xdb\x03\x1b\xbdv@'
p734
tp735
Rp736
ag7
(g11
S" \xe1'\x17\xa2\xaev@"
p737
tp738
Rp739
ag7
(g11
S'f\xc7s*)\xa0v@'
p740
tp741
Rp742
ag7
(g11
S'\xab\xad\xbf=\xb0\x91v@'
p743
tp744
Rp745
ag7
(g11
S'\xf0\x93\x0bQ7\x83v@'
p746
tp747
Rp748
ag7
(g11
S'6zWd\xbetv@'
p749
tp750
Rp751
ag7
(g11
S'|`\xa3wEfv@'
p752
tp753
Rp754
ag7
(g11
S'\xc1F\xef\x8a\xccWv@'
p755
tp756
Rp757
ag7
(g11
S'\x06-;\x9eSIv@'
p758
tp759
Rp760
ag7
(g11
S'L\x13\x87\xb1\xda:v@'
p761
tp762
Rp763
ag7
(g11
S'\x91\xf9\xd2\xc4a,v@'
p764
tp765
Rp766
ag7
(g11
S'\xd7\xdf\x1e\xd8\xe8\x1dv@'
p767
tp768
Rp769
ag7
(g11
S'\x1c\xc6j\xebo\x0fv@'
p770
tp771
Rp772
ag7
(g11
S'b\xac\xb6\xfe\xf6\x00v@'
p773
tp774
Rp775
ag7
(g11
S'\xa7\x92\x02\x12~\xf2u@'
p776
tp777
Rp778
ag7
(g11
S'\xedxN%\x05\xe4u@'
p779
tp780
Rp781
ag7
(g11
S'2_\x9a8\x8c\xd5u@'
p782
tp783
Rp784
ag7
(g11
S'xE\xe6K\x13\xc7u@'
p785
tp786
Rp787
ag7
(g11
S'\xbd+2_\x9a\xb8u@'
p788
tp789
Rp790
ag7
(g11
S'\x02\x12~r!\xaau@'
p791
tp792
Rp793
ag7
(g11
S'H\xf8\xc9\x85\xa8\x9bu@'
p794
tp795
Rp796
ag7
(g11
S'\x8e\xde\x15\x99/\x8du@'
p797
tp798
Rp799
ag7
(g11
S'\xd3\xc4a\xac\xb6~u@'
p800
tp801
Rp802
ag7
(g11
S'\x18\xab\xad\xbf=pu@'
p803
tp804
Rp805
ag7
(g11
S'^\x91\xf9\xd2\xc4au@'
p806
tp807
Rp808
ag7
(g11
S'\xa3wE\xe6KSu@'
p809
tp810
Rp811
ag7
(g11
S'\xe9]\x91\xf9\xd2Du@'
p812
tp813
Rp814
ag7
(g11
S'.D\xdd\x0cZ6u@'
p815
tp816
Rp817
ag7
(g11
S"t*) \xe1'u@"
p818
tp819
Rp820
ag7
(g11
S'\xb9\x10u3h\x19u@'
p821
tp822
Rp823
ag7
(g11
S'\xff\xf6\xc0F\xef\nu@'
p824
tp825
Rp826
ag7
(g11
S'D\xdd\x0cZv\xfct@'
p827
tp828
Rp829
ag7
(g11
S'\x8a\xc3Xm\xfd\xedt@'
p830
tp831
Rp832
ag7
(g11
S'\xcf\xa9\xa4\x80\x84\xdft@'
p833
tp834
Rp835
ag7
(g11
S'\x14\x90\xf0\x93\x0b\xd1t@'
p836
tp837
Rp838
ag7
(g11
S'Zv<\xa7\x92\xc2t@'
p839
tp840
Rp841
ag7
(g11
S'\xa0\\\x88\xba\x19\xb4t@'
p842
tp843
Rp844
ag7
(g11
S'\xe5B\xd4\xcd\xa0\xa5t@'
p845
tp846
Rp847
ag7
(g11
S"*) \xe1'\x97t@"
p848
tp849
Rp850
ag7
(g11
S'p\x0fl\xf4\xae\x88t@'
p851
tp852
Rp853
ag7
(g11
S'\xb5\xf5\xb7\x076zt@'
p854
tp855
Rp856
ag7
(g11
S'\xfb\xdb\x03\x1b\xbdkt@'
p857
tp858
Rp859
ag7
(g11
S'@\xc2O.D]t@'
p860
tp861
Rp862
ag7
(g11
S'\x86\xa8\x9bA\xcbNt@'
p863
tp864
Rp865
ag7
(g11
S'\xcb\x8e\xe7TR@t@'
p866
tp867
Rp868
ag7
(g11
S'\x11u3h\xd91t@'
p869
tp870
Rp871
ag7
(g11
S'V[\x7f{`#t@'
p872
tp873
Rp874
ag7
(g11
S'\x9cA\xcb\x8e\xe7\x14t@'
p875
tp876
Rp877
ag7
(g11
S"\xe1'\x17\xa2n\x06t@"
p878
tp879
Rp880
ag7
(g11
S'&\x0ec\xb5\xf5\xf7s@'
p881
tp882
Rp883
ag7
(g11
S'l\xf4\xae\xc8|\xe9s@'
p884
tp885
Rp886
ag7
(g11
S'\xb2\xda\xfa\xdb\x03\xdbs@'
p887
tp888
Rp889
ag7
(g11
S'\xf7\xc0F\xef\x8a\xccs@'
p890
tp891
Rp892
ag7
(g11
S'<\xa7\x92\x02\x12\xbes@'
p893
tp894
Rp895
ag7
(g11
S'\x82\x8d\xde\x15\x99\xafs@'
p896
tp897
Rp898
ag7
(g11
S'\xc7s*) \xa1s@'
p899
tp900
Rp901
ag7
(g11
S'\rZv<\xa7\x92s@'
p902
tp903
Rp904
ag7
(g11
S'R@\xc2O.\x84s@'
p905
tp906
Rp907
ag7
(g11
S'\x98&\x0ec\xb5us@'
p908
tp909
Rp910
ag7
(g11
S'\xdd\x0cZv<gs@'
p911
tp912
Rp913
ag7
(g11
S'#\xf3\xa5\x89\xc3Xs@'
p914
tp915
Rp916
ag7
(g11
S'h\xd9\xf1\x9cJJs@'
p917
tp918
Rp919
ag7
(g11
S'\xae\xbf=\xb0\xd1;s@'
p920
tp921
Rp922
ag7
(g11
S'\xf3\xa5\x89\xc3X-s@'
p923
tp924
Rp925
ag7
(g11
S'8\x8c\xd5\xd6\xdf\x1es@'
p926
tp927
Rp928
ag7
(g11
S'~r!\xeaf\x10s@'
p929
tp930
Rp931
ag7
(g11
S'\xc4Xm\xfd\xed\x01s@'
p932
tp933
Rp934
ag7
(g11
S'\t?\xb9\x10u\xf3r@'
p935
tp936
Rp937
ag7
(g11
S'N%\x05$\xfc\xe4r@'
p938
tp939
Rp940
ag7
(g11
S'\x94\x0bQ7\x83\xd6r@'
p941
tp942
Rp943
ag7
(g11
S'\xd9\xf1\x9cJ\n\xc8r@'
p944
tp945
Rp946
ag7
(g11
S'\x1f\xd8\xe8]\x91\xb9r@'
p947
tp948
Rp949
ag7
(g11
S'd\xbe4q\x18\xabr@'
p950
tp951
Rp952
ag7
(g11
S'\xaa\xa4\x80\x84\x9f\x9cr@'
p953
tp954
Rp955
ag7
(g11
S'\xef\x8a\xcc\x97&\x8er@'
p956
tp957
Rp958
ag7
(g11
S'5q\x18\xab\xad\x7fr@'
p959
tp960
Rp961
ag7
(g11
S'zWd\xbe4qr@'
p962
tp963
Rp964
ag7
(g11
S'\xc0=\xb0\xd1\xbbbr@'
p965
tp966
Rp967
ag7
(g11
S'\x05$\xfc\xe4BTr@'
p968
tp969
Rp970
ag7
(g11
S'J\nH\xf8\xc9Er@'
p971
tp972
Rp973
ag7
(g11
S'\x90\xf0\x93\x0bQ7r@'
p974
tp975
Rp976
ag7
(g11
S'\xd6\xd6\xdf\x1e\xd8(r@'
p977
tp978
Rp979
ag7
(g11
S'\x1b\xbd+2_\x1ar@'
p980
tp981
Rp982
ag7
(g11
S'`\xa3wE\xe6\x0br@'
p983
tp984
Rp985
ag7
(g11
S'\xa6\x89\xc3Xm\xfdq@'
p986
tp987
Rp988
ag7
(g11
S'\xebo\x0fl\xf4\xeeq@'
p989
tp990
Rp991
ag7
(g11
S'1V[\x7f{\xe0q@'
p992
tp993
Rp994
ag7
(g11
S'v<\xa7\x92\x02\xd2q@'
p995
tp996
Rp997
ag7
(g11
S'\xbc"\xf3\xa5\x89\xc3q@'
p998
tp999
Rp1000
ag7
(g11
S'\x01\t?\xb9\x10\xb5q@'
p1001
tp1002
Rp1003
ag7
(g11
S'G\xef\x8a\xcc\x97\xa6q@'
p1004
tp1005
Rp1006
ag7
(g11
S'\x8c\xd5\xd6\xdf\x1e\x98q@'
p1007
tp1008
Rp1009
ag7
(g11
S'\xd2\xbb"\xf3\xa5\x89q@'
p1010
tp1011
Rp1012
ag7
(g11
S'\x17\xa2n\x06-{q@'
p1013
tp1014
Rp1015
ag7
(g11
S'\\\x88\xba\x19\xb4lq@'
p1016
tp1017
Rp1018
ag7
(g11
S'\xa2n\x06-;^q@'
p1019
tp1020
Rp1021
ag7
(g11
S'\xe8TR@\xc2Oq@'
p1022
tp1023
Rp1024
ag7
(g11
S'-;\x9eSIAq@'
p1025
tp1026
Rp1027
ag7
(g11
S'r!\xeaf\xd02q@'
p1028
tp1029
Rp1030
ag7
(g11
S'\xb8\x076zW$q@'
p1031
tp1032
Rp1033
ag7
(g11
S'\xfd\xed\x81\x8d\xde\x15q@'
p1034
tp1035
Rp1036
ag7
(g11
S'C\xd4\xcd\xa0e\x07q@'
p1037
tp1038
Rp1039
ag7
(g11
S'\x88\xba\x19\xb4\xec\xf8p@'
p1040
tp1041
Rp1042
ag7
(g11
S'\xce\xa0e\xc7s\xeap@'
p1043
tp1044
Rp1045
ag7
(g11
S'\x13\x87\xb1\xda\xfa\xdbp@'
p1046
tp1047
Rp1048
ag7
(g11
S'Xm\xfd\xed\x81\xcdp@'
p1049
tp1050
Rp1051
ag7
(g11
S'\x9eSI\x01\t\xbfp@'
p1052
tp1053
Rp1054
ag7
(g11
S'\xe49\x95\x14\x90\xb0p@'
p1055
tp1056
Rp1057
ag7
(g11
S") \xe1'\x17\xa2p@"
p1058
tp1059
Rp1060
ag7
(g11
S'n\x06-;\x9e\x93p@'
p1061
tp1062
Rp1063
ag7
(g11
S'\xb4\xecxN%\x85p@'
p1064
tp1065
Rp1066
ag7
(g11
S'\xfa\xd2\xc4a\xacvp@'
p1067
tp1068
Rp1069
ag7
(g11
S'?\xb9\x10u3hp@'
p1070
tp1071
Rp1072
ag7
(g11
S'\x84\x9f\\\x88\xbaYp@'
p1073
tp1074
Rp1075
ag7
(g11
S'\xca\x85\xa8\x9bAKp@'
p1076
tp1077
Rp1078
ag7
(g11
S'\x10l\xf4\xae\xc8<p@'
p1079
tp1080
Rp1081
ag7
(g11
S'UR@\xc2O.p@'
p1082
tp1083
Rp1084
ag7
(g11
S'\x9a8\x8c\xd5\xd6\x1fp@'
p1085
tp1086
Rp1087
ag7
(g11
S'\xe0\x1e\xd8\xe8]\x11p@'
p1088
tp1089
Rp1090
ag7
(g11
S'%\x05$\xfc\xe4\x02p@'
p1091
tp1092
Rp1093
ag7
(g11
S'\xd5\xd6\xdf\x1e\xd8\xe8o@'
p1094
tp1095
Rp1096
ag7
(g11
S'`\xa3wE\xe6\xcbo@'
p1097
tp1098
Rp1099
ag7
(g11
S'\xebo\x0fl\xf4\xaeo@'
p1100
tp1101
Rp1102
ag7
(g11
S'v<\xa7\x92\x02\x92o@'
p1103
tp1104
Rp1105
ag7
(g11
S'\x01\t?\xb9\x10uo@'
p1106
tp1107
Rp1108
ag7
(g11
S'\x8c\xd5\xd6\xdf\x1eXo@'
p1109
tp1110
Rp1111
ag7
(g11
S'\x17\xa2n\x06-;o@'
p1112
tp1113
Rp1114
ag7
(g11
S'\xa2n\x06-;\x1eo@'
p1115
tp1116
Rp1117
ag7
(g11
S'-;\x9eSI\x01o@'
p1118
tp1119
Rp1120
ag7
(g11
S'\xb8\x076zW\xe4n@'
p1121
tp1122
Rp1123
ag7
(g11
S'C\xd4\xcd\xa0e\xc7n@'
p1124
tp1125
Rp1126
ag7
(g11
S'\xce\xa0e\xc7s\xaan@'
p1127
tp1128
Rp1129
ag7
(g11
S'Ym\xfd\xed\x81\x8dn@'
p1130
tp1131
Rp1132
ag7
(g11
S'\xe49\x95\x14\x90pn@'
p1133
tp1134
Rp1135
ag7
(g11
S'n\x06-;\x9eSn@'
p1136
tp1137
Rp1138
ag7
(g11
S'\xf9\xd2\xc4a\xac6n@'
p1139
tp1140
Rp1141
ag7
(g11
S'\x84\x9f\\\x88\xba\x19n@'
p1142
tp1143
Rp1144
ag7
(g11
S'\x0fl\xf4\xae\xc8\xfcm@'
p1145
tp1146
Rp1147
ag7
(g11
S'\x9a8\x8c\xd5\xd6\xdfm@'
p1148
tp1149
Rp1150
ag7
(g11
S'%\x05$\xfc\xe4\xc2m@'
p1151
tp1152
Rp1153
ag7
(g11
S'\xb0\xd1\xbb"\xf3\xa5m@'
p1154
tp1155
Rp1156
ag7
(g11
S';\x9eSI\x01\x89m@'
p1157
tp1158
Rp1159
ag7
(g11
S'\xc6j\xebo\x0flm@'
p1160
tp1161
Rp1162
ag7
(g11
S'Q7\x83\x96\x1dOm@'
p1163
tp1164
Rp1165
ag7
(g11
S'\xdc\x03\x1b\xbd+2m@'
p1166
tp1167
Rp1168
ag7
(g11
S'g\xd0\xb2\xe39\x15m@'
p1169
tp1170
Rp1171
ag7
(g11
S'\xf2\x9cJ\nH\xf8l@'
p1172
tp1173
Rp1174
ag7
(g11
S'}i\xe20V\xdbl@'
p1175
tp1176
Rp1177
ag7
(g11
S'\x086zWd\xbel@'
p1178
tp1179
Rp1180
ag7
(g11
S'\x92\x02\x12~r\xa1l@'
p1181
tp1182
Rp1183
ag7
(g11
S'\x1d\xcf\xa9\xa4\x80\x84l@'
p1184
tp1185
Rp1186
ag7
(g11
S'\xa8\x9bA\xcb\x8egl@'
p1187
tp1188
Rp1189
ag7
(g11
S'3h\xd9\xf1\x9cJl@'
p1190
tp1191
Rp1192
ag7
(g11
S'\xbe4q\x18\xab-l@'
p1193
tp1194
Rp1195
ag7
(g11
S'I\x01\t?\xb9\x10l@'
p1196
tp1197
Rp1198
ag7
(g11
S'\xd4\xcd\xa0e\xc7\xf3k@'
p1199
tp1200
Rp1201
ag7
(g11
S'_\x9a8\x8c\xd5\xd6k@'
p1202
tp1203
Rp1204
ag7
(g11
S'\xeaf\xd0\xb2\xe3\xb9k@'
p1205
tp1206
Rp1207
ag7
(g11
S'u3h\xd9\xf1\x9ck@'
p1208
tp1209
Rp1210
ag7
(g11
S'\x00\x00\x00\x00\x00\x80k@'
p1211
tp1212
Rp1213
asS'eps_l'
p1214
(lp1215
g7
(g11
S'\xe0r\x01\x02\x8a\xc9\xe1\xbf'
p1216
tp1217
Rp1218
ag7
(g11
S'\xe0r\x01\x02\x8a\xc9\xe1\xbf'
p1219
tp1220
Rp1221
ag7
(g11
S'\xe0r\x01\x02\x8a\xc9\xe1\xbf'
p1222
tp1223
Rp1224
ag7
(g11
S'\xe0r\x01\x02\x8a\xc9\xe1\xbf'
p1225
tp1226
Rp1227
ag7
(g11
S'\xe0r\x01\x02\x8a\xc9\xe1\xbf'
p1228
tp1229
Rp1230
ag7
(g11
S'\xe0r\x01\x02\x8a\xc9\xe1\xbf'
p1231
tp1232
Rp1233
ag7
(g11
S'\xe0r\x01\x02\x8a\xc9\xe1\xbf'
p1234
tp1235
Rp1236
ag7
(g11
S'\xe0r\x01\x02\x8a\xc9\xe1\xbf'
p1237
tp1238
Rp1239
ag7
(g11
S'\xe0r\x01\x02\x8a\xc9\xe1\xbf'
p1240
tp1241
Rp1242
ag7
(g11
S'\xe0r\x01\x02\x8a\xc9\xe1\xbf'
p1243
tp1244
Rp1245
ag7
(g11
S'\xe0r\x01\x02\x8a\xc9\xe1\xbf'
p1246
tp1247
Rp1248
ag7
(g11
S'\xe0r\x01\x02\x8a\xc9\xe1\xbf'
p1249
tp1250
Rp1251
ag7
(g11
S'\xe0r\x01\x02\x8a\xc9\xe1\xbf'
p1252
tp1253
Rp1254
ag7
(g11
S'\xe0r\x01\x02\x8a\xc9\xe1\xbf'
p1255
tp1256
Rp1257
ag7
(g11
S'\xe0r\x01\x02\x8a\xc9\xe1\xbf'
p1258
tp1259
Rp1260
ag7
(g11
S'\xe0r\x01\x02\x8a\xc9\xe1\xbf'
p1261
tp1262
Rp1263
ag7
(g11
S'\xe0r\x01\x02\x8a\xc9\xe1\xbf'
p1264
tp1265
Rp1266
ag7
(g11
S'\xe0r\x01\x02\x8a\xc9\xe1\xbf'
p1267
tp1268
Rp1269
ag7
(g11
S'\xe0r\x01\x02\x8a\xc9\xe1\xbf'
p1270
tp1271
Rp1272
ag7
(g11
S'\xe0r\x01\x02\x8a\xc9\xe1\xbf'
p1273
tp1274
Rp1275
ag7
(g11
S'\xe0r\x01\x02\x8a\xc9\xe1\xbf'
p1276
tp1277
Rp1278
ag7
(g11
S'\xe0r\x01\x02\x8a\xc9\xe1\xbf'
p1279
tp1280
Rp1281
ag7
(g11
S'\xe0r\x01\x02\x8a\xc9\xe1\xbf'
p1282
tp1283
Rp1284
ag7
(g11
S'\xe0r\x01\x02\x8a\xc9\xe1\xbf'
p1285
tp1286
Rp1287
ag7
(g11
S'\xe0r\x01\x02\x8a\xc9\xe1\xbf'
p1288
tp1289
Rp1290
ag7
(g11
S'\xe0r\x01\x02\x8a\xc9\xe1\xbf'
p1291
tp1292
Rp1293
ag7
(g11
S'\xe0r\x01\x02\x8a\xc9\xe1\xbf'
p1294
tp1295
Rp1296
ag7
(g11
S'\xe0r\x01\x02\x8a\xc9\xe1\xbf'
p1297
tp1298
Rp1299
ag7
(g11
S'\xe0r\x01\x02\x8a\xc9\xe1\xbf'
p1300
tp1301
Rp1302
ag7
(g11
S'\xe0r\x01\x02\x8a\xc9\xe1\xbf'
p1303
tp1304
Rp1305
ag7
(g11
S'\xe0r\x01\x02\x8a\xc9\xe1\xbf'
p1306
tp1307
Rp1308
ag7
(g11
S'\xe0r\x01\x02\x8a\xc9\xe1\xbf'
p1309
tp1310
Rp1311
ag7
(g11
S'\xe0r\x01\x02\x8a\xc9\xe1\xbf'
p1312
tp1313
Rp1314
ag7
(g11
S'\xe0r\x01\x02\x8a\xc9\xe1\xbf'
p1315
tp1316
Rp1317
ag7
(g11
S'\xe0r\x01\x02\x8a\xc9\xe1\xbf'
p1318
tp1319
Rp1320
ag7
(g11
S'\xe0r\x01\x02\x8a\xc9\xe1\xbf'
p1321
tp1322
Rp1323
ag7
(g11
S'\xe0r\x01\x02\x8a\xc9\xe1\xbf'
p1324
tp1325
Rp1326
ag7
(g11
S'\xe0r\x01\x02\x8a\xc9\xe1\xbf'
p1327
tp1328
Rp1329
ag7
(g11
S'\xe0r\x01\x02\x8a\xc9\xe1\xbf'
p1330
tp1331
Rp1332
ag7
(g11
S'\xe0r\x01\x02\x8a\xc9\xe1\xbf'
p1333
tp1334
Rp1335
ag7
(g11
S'\xe0r\x01\x02\x8a\xc9\xe1\xbf'
p1336
tp1337
Rp1338
ag7
(g11
S'\xe0r\x01\x02\x8a\xc9\xe1\xbf'
p1339
tp1340
Rp1341
ag7
(g11
S'\xe0r\x01\x02\x8a\xc9\xe1\xbf'
p1342
tp1343
Rp1344
ag7
(g11
S'\xe0r\x01\x02\x8a\xc9\xe1\xbf'
p1345
tp1346
Rp1347
ag7
(g11
S'\xe0r\x01\x02\x8a\xc9\xe1\xbf'
p1348
tp1349
Rp1350
ag7
(g11
S'\xe0r\x01\x02\x8a\xc9\xe1\xbf'
p1351
tp1352
Rp1353
ag7
(g11
S'\xe0r\x01\x02\x8a\xc9\xe1\xbf'
p1354
tp1355
Rp1356
ag7
(g11
S'\xe0r\x01\x02\x8a\xc9\xe1\xbf'
p1357
tp1358
Rp1359
ag7
(g11
S'\xe0r\x01\x02\x8a\xc9\xe1\xbf'
p1360
tp1361
Rp1362
ag7
(g11
S'\xe0r\x01\x02\x8a\xc9\xe1\xbf'
p1363
tp1364
Rp1365
ag7
(g11
S'\xe0r\x01\x02\x8a\xc9\xe1\xbf'
p1366
tp1367
Rp1368
ag7
(g11
S'\xe0r\x01\x02\x8a\xc9\xe1\xbf'
p1369
tp1370
Rp1371
ag7
(g11
S'\xe0r\x01\x02\x8a\xc9\xe1\xbf'
p1372
tp1373
Rp1374
ag7
(g11
S'\xe0r\x01\x02\x8a\xc9\xe1\xbf'
p1375
tp1376
Rp1377
ag7
(g11
S'\xe0r\x01\x02\x8a\xc9\xe1\xbf'
p1378
tp1379
Rp1380
ag7
(g11
S'\xe0r\x01\x02\x8a\xc9\xe1\xbf'
p1381
tp1382
Rp1383
ag7
(g11
S'\xe0r\x01\x02\x8a\xc9\xe1\xbf'
p1384
tp1385
Rp1386
ag7
(g11
S'\xe0r\x01\x02\x8a\xc9\xe1\xbf'
p1387
tp1388
Rp1389
ag7
(g11
S'\xe0r\x01\x02\x8a\xc9\xe1\xbf'
p1390
tp1391
Rp1392
ag7
(g11
S'\xe0r\x01\x02\x8a\xc9\xe1\xbf'
p1393
tp1394
Rp1395
ag7
(g11
S'\xe0r\x01\x02\x8a\xc9\xe1\xbf'
p1396
tp1397
Rp1398
ag7
(g11
S'\xe0r\x01\x02\x8a\xc9\xe1\xbf'
p1399
tp1400
Rp1401
ag7
(g11
S'\xe0r\x01\x02\x8a\xc9\xe1\xbf'
p1402
tp1403
Rp1404
ag7
(g11
S'\xe0r\x01\x02\x8a\xc9\xe1\xbf'
p1405
tp1406
Rp1407
ag7
(g11
S'\xe0r\x01\x02\x8a\xc9\xe1\xbf'
p1408
tp1409
Rp1410
ag7
(g11
S'\xe0r\x01\x02\x8a\xc9\xe1\xbf'
p1411
tp1412
Rp1413
ag7
(g11
S'\xe0r\x01\x02\x8a\xc9\xe1\xbf'
p1414
tp1415
Rp1416
ag7
(g11
S'\xe0r\x01\x02\x8a\xc9\xe1\xbf'
p1417
tp1418
Rp1419
ag7
(g11
S'\xe0r\x01\x02\x8a\xc9\xe1\xbf'
p1420
tp1421
Rp1422
ag7
(g11
S'\xe0r\x01\x02\x8a\xc9\xe1\xbf'
p1423
tp1424
Rp1425
ag7
(g11
S'\xe0r\x01\x02\x8a\xc9\xe1\xbf'
p1426
tp1427
Rp1428
ag7
(g11
S'\xe0r\x01\x02\x8a\xc9\xe1\xbf'
p1429
tp1430
Rp1431
ag7
(g11
S'\xe0r\x01\x02\x8a\xc9\xe1\xbf'
p1432
tp1433
Rp1434
ag7
(g11
S'\xe0r\x01\x02\x8a\xc9\xe1\xbf'
p1435
tp1436
Rp1437
ag7
(g11
S'\xe0r\x01\x02\x8a\xc9\xe1\xbf'
p1438
tp1439
Rp1440
ag7
(g11
S'\xe0r\x01\x02\x8a\xc9\xe1\xbf'
p1441
tp1442
Rp1443
ag7
(g11
S'\xe0r\x01\x02\x8a\xc9\xe1\xbf'
p1444
tp1445
Rp1446
ag7
(g11
S'\xe0r\x01\x02\x8a\xc9\xe1\xbf'
p1447
tp1448
Rp1449
ag7
(g11
S'\xe0r\x01\x02\x8a\xc9\xe1\xbf'
p1450
tp1451
Rp1452
ag7
(g11
S'\xe0r\x01\x02\x8a\xc9\xe1\xbf'
p1453
tp1454
Rp1455
ag7
(g11
S'\xe0r\x01\x02\x8a\xc9\xe1\xbf'
p1456
tp1457
Rp1458
ag7
(g11
S'\xe0r\x01\x02\x8a\xc9\xe1\xbf'
p1459
tp1460
Rp1461
ag7
(g11
S'\xe0r\x01\x02\x8a\xc9\xe1\xbf'
p1462
tp1463
Rp1464
ag7
(g11
S'\xe0r\x01\x02\x8a\xc9\xe1\xbf'
p1465
tp1466
Rp1467
ag7
(g11
S'\xe0r\x01\x02\x8a\xc9\xe1\xbf'
p1468
tp1469
Rp1470
ag7
(g11
S'\xe0r\x01\x02\x8a\xc9\xe1\xbf'
p1471
tp1472
Rp1473
ag7
(g11
S'\xe0r\x01\x02\x8a\xc9\xe1\xbf'
p1474
tp1475
Rp1476
ag7
(g11
S'\xe0r\x01\x02\x8a\xc9\xe1\xbf'
p1477
tp1478
Rp1479
ag7
(g11
S'\xe0r\x01\x02\x8a\xc9\xe1\xbf'
p1480
tp1481
Rp1482
ag7
(g11
S'\xe0r\x01\x02\x8a\xc9\xe1\xbf'
p1483
tp1484
Rp1485
ag7
(g11
S'\xe0r\x01\x02\x8a\xc9\xe1\xbf'
p1486
tp1487
Rp1488
ag7
(g11
S'\xe0r\x01\x02\x8a\xc9\xe1\xbf'
p1489
tp1490
Rp1491
ag7
(g11
S'\xe0r\x01\x02\x8a\xc9\xe1\xbf'
p1492
tp1493
Rp1494
ag7
(g11
S'\xe0r\x01\x02\x8a\xc9\xe1\xbf'
p1495
tp1496
Rp1497
ag7
(g11
S'\xe0r\x01\x02\x8a\xc9\xe1\xbf'
p1498
tp1499
Rp1500
ag7
(g11
S'\xe0r\x01\x02\x8a\xc9\xe1\xbf'
p1501
tp1502
Rp1503
ag7
(g11
S'\xe0r\x01\x02\x8a\xc9\xe1\xbf'
p1504
tp1505
Rp1506
ag7
(g11
S'\xe0r\x01\x02\x8a\xc9\xe1\xbf'
p1507
tp1508
Rp1509
ag7
(g11
S'\xe0r\x01\x02\x8a\xc9\xe1\xbf'
p1510
tp1511
Rp1512
ag7
(g11
S'\xe0r\x01\x02\x8a\xc9\xe1\xbf'
p1513
tp1514
Rp1515
ag7
(g11
S'\xe0r\x01\x02\x8a\xc9\xe1\xbf'
p1516
tp1517
Rp1518
ag7
(g11
S'\x01\x11V\x08\x8a\xc9\xe1\xbf'
p1519
tp1520
Rp1521
ag7
(g11
S'\x00\x11V\x08\x8a\xc9\xe1\xbf'
p1522
tp1523
Rp1524
ag7
(g11
S'\x00\x11V\x08\x8a\xc9\xe1\xbf'
p1525
tp1526
Rp1527
ag7
(g11
S'\x00\x11V\x08\x8a\xc9\xe1\xbf'
p1528
tp1529
Rp1530
ag7
(g11
S'\x00\x11V\x08\x8a\xc9\xe1\xbf'
p1531
tp1532
Rp1533
ag7
(g11
S'\x00\x11V\x08\x8a\xc9\xe1\xbf'
p1534
tp1535
Rp1536
ag7
(g11
S'\x00\x11V\x08\x8a\xc9\xe1\xbf'
p1537
tp1538
Rp1539
ag7
(g11
S'\x00\x11V\x08\x8a\xc9\xe1\xbf'
p1540
tp1541
Rp1542
ag7
(g11
S'\x00\x11V\x08\x8a\xc9\xe1\xbf'
p1543
tp1544
Rp1545
ag7
(g11
S'\x00\x11V\x08\x8a\xc9\xe1\xbf'
p1546
tp1547
Rp1548
ag7
(g11
S'\x00\x11V\x08\x8a\xc9\xe1\xbf'
p1549
tp1550
Rp1551
ag7
(g11
S'\x00\x11V\x08\x8a\xc9\xe1\xbf'
p1552
tp1553
Rp1554
ag7
(g11
S'\x00\x11V\x08\x8a\xc9\xe1\xbf'
p1555
tp1556
Rp1557
ag7
(g11
S'\x00\x11V\x08\x8a\xc9\xe1\xbf'
p1558
tp1559
Rp1560
ag7
(g11
S'\x00\x11V\x08\x8a\xc9\xe1\xbf'
p1561
tp1562
Rp1563
ag7
(g11
S'\x00\x11V\x08\x8a\xc9\xe1\xbf'
p1564
tp1565
Rp1566
ag7
(g11
S'\x00\x11V\x08\x8a\xc9\xe1\xbf'
p1567
tp1568
Rp1569
ag7
(g11
S'\x00\x11V\x08\x8a\xc9\xe1\xbf'
p1570
tp1571
Rp1572
ag7
(g11
S'\x00\x11V\x08\x8a\xc9\xe1\xbf'
p1573
tp1574
Rp1575
ag7
(g11
S'\x00\x11V\x08\x8a\xc9\xe1\xbf'
p1576
tp1577
Rp1578
ag7
(g11
S'\x00\x11V\x08\x8a\xc9\xe1\xbf'
p1579
tp1580
Rp1581
ag7
(g11
S"Rj'\xaf\x8c\xc9\xe1\xbf"
p1582
tp1583
Rp1584
ag7
(g11
S"Sj'\xaf\x8c\xc9\xe1\xbf"
p1585
tp1586
Rp1587
ag7
(g11
S"Sj'\xaf\x8c\xc9\xe1\xbf"
p1588
tp1589
Rp1590
ag7
(g11
S"Sj'\xaf\x8c\xc9\xe1\xbf"
p1591
tp1592
Rp1593
ag7
(g11
S"Sj'\xaf\x8c\xc9\xe1\xbf"
p1594
tp1595
Rp1596
ag7
(g11
S"Sj'\xaf\x8c\xc9\xe1\xbf"
p1597
tp1598
Rp1599
ag7
(g11
S"Sj'\xaf\x8c\xc9\xe1\xbf"
p1600
tp1601
Rp1602
ag7
(g11
S'\xb1\xe4;\xe0\x94\xc9\xe1\xbf'
p1603
tp1604
Rp1605
ag7
(g11
S"\xe9\x90'\xe0\x94\xc9\xe1\xbf"
p1606
tp1607
Rp1608
ag7
(g11
S"\xea\x90'\xe0\x94\xc9\xe1\xbf"
p1609
tp1610
Rp1611
ag7
(g11
S'~\xcd9^\xa5\xc9\xe1\xbf'
p1612
tp1613
Rp1614
ag7
(g11
S'\x05=\x93`\xb1\xc9\xe1\xbf'
p1615
tp1616
Rp1617
ag7
(g11
S'\x00\xf9\x1c\xf5\xc3\xc9\xe1\xbf'
p1618
tp1619
Rp1620
ag7
(g11
S'\xf2f\x9b\xaa\xe0\xc9\xe1\xbf'
p1621
tp1622
Rp1623
ag7
(g11
S'\x9f+\xea\xa2\x0c\xca\xe1\xbf'
p1624
tp1625
Rp1626
ag7
(g11
S'l\xb0\x7f\x00O\xca\xe1\xbf'
p1627
tp1628
Rp1629
ag7
(g11
S'\xf3\xcb^G\xb1\xca\xe1\xbf'
p1630
tp1631
Rp1632
ag7
(g11
S'||\xd8\x8b?\xcb\xe1\xbf'
p1633
tp1634
Rp1635
ag7
(g11
S'\x98\x9d\x8cD\x08\xcc\xe1\xbf'
p1636
tp1637
Rp1638
ag7
(g11
S' \xd2\x1b\xa1\x1b\xcd\xe1\xbf'
p1639
tp1640
Rp1641
ag7
(g11
S'\x13\xb3(|\x8a\xce\xe1\xbf'
p1642
tp1643
Rp1644
ag7
(g11
S'z\xd5)7e\xd0\xe1\xbf'
p1645
tp1646
Rp1647
ag7
(g11
S'tM`\xd1\xb7\xd2\xe1\xbf'
p1648
tp1649
Rp1650
ag7
(g11
S'\x86\xc1\xb1(\x90\xd5\xe1\xbf'
p1651
tp1652
Rp1653
ag7
(g11
S'\xae\xcd\r\x1a\xfb\xd8\xe1\xbf'
p1654
tp1655
Rp1656
ag7
(g11
S'q\xa6m\xf7\x03\xdd\xe1\xbf'
p1657
tp1658
Rp1659
ag7
(g11
S'\xdb\x16\x18\xdd\xb8\xe1\xe1\xbf'
p1660
tp1661
Rp1662
ag7
(g11
S'D\xe1+\x9d-\xe7\xe1\xbf'
p1663
tp1664
Rp1665
ag7
(g11
S'*\xc7\xb9\xadf\xed\xe1\xbf'
p1666
tp1667
Rp1668
ag7
(g11
S'\xb4\x9aK\x90i\xf4\xe1\xbf'
p1669
tp1670
Rp1671
ag7
(g11
S'\xa5~u ?\xfc\xe1\xbf'
p1672
tp1673
Rp1674
ag7
(g11
S'9\xf7\x92\xc3\x02\x05\xe2\xbf'
p1675
tp1676
Rp1677
ag7
(g11
S'\xa3D\nZ\xce\x0e\xe2\xbf'
p1678
tp1679
Rp1680
ag7
(g11
S'\xd2f\xab\xb1\xcd\x19\xe2\xbf'
p1681
tp1682
Rp1683
ag7
(g11
S'\xe9!\x94\x02\x13&\xe2\xbf'
p1684
tp1685
Rp1686
ag7
(g11
S'o\xb3\xd3*\xe12\xe2\xbf'
p1687
tp1688
Rp1689
ag7
(g11
S'PC\xd9B\xc9@\xe2\xbf'
p1690
tp1691
Rp1692
ag7
(g11
S'.T\x12\xc6\x03P\xe2\xbf'
p1693
tp1694
Rp1695
ag7
(g11
S'\xfe\x9c\xe8\xa8\xeaa\xe2\xbf'
p1696
tp1697
Rp1698
ag7
(g11
S'R\xdd\xb5Dmr\xe2\xbf'
p1699
tp1700
Rp1701
ag7
(g11
S'{\xd9\xb2\xc7`\x82\xe2\xbf'
p1702
tp1703
Rp1704
ag7
(g11
S'\xa8\t\xb1\xb1\xee\x91\xe2\xbf'
p1705
tp1706
Rp1707
ag7
(g11
S'\xc6GZ\xaf[\xa0\xe2\xbf'
p1708
tp1709
Rp1710
ag7
(g11
S'\xb2k\xc2\x1a?\xad\xe2\xbf'
p1711
tp1712
Rp1713
ag7
(g11
S'\xcd\xc5@\x9e\x96\xb8\xe2\xbf'
p1714
tp1715
Rp1716
ag7
(g11
S'\xb4X\x91\x0b\x06\xc2\xe2\xbf'
p1717
tp1718
Rp1719
ag7
(g11
S'\xc1\xfe\xd6\xd3\xb4\xc9\xe2\xbf'
p1720
tp1721
Rp1722
ag7
(g11
S'\xfe\xad/\x19\xbf\xcf\xe2\xbf'
p1723
tp1724
Rp1725
ag7
(g11
S':XTaS\xd4\xe2\xbf'
p1726
tp1727
Rp1728
ag7
(g11
S'\x863\x1bv\xb7\xd7\xe2\xbf'
p1729
tp1730
Rp1731
ag7
(g11
S',\xbf\\\xd8,\xda\xe2\xbf'
p1732
tp1733
Rp1734
ag7
(g11
S'\x10\xfb\xe1\xa2\xec\xdb\xe2\xbf'
p1735
tp1736
Rp1737
ag7
(g11
S'h_\xf5\xe0%\xdd\xe2\xbf'
p1738
tp1739
Rp1740
ag7
(g11
S'\x1e\x1d\xc9\xa7\xfd\xdd\xe2\xbf'
p1741
tp1742
Rp1743
ag7
(g11
S'+\xa722\x90\xde\xe2\xbf'
p1744
tp1745
Rp1746
ag7
(g11
S'\x92**f\xf2\xde\xe2\xbf'
p1747
tp1748
Rp1749
ag7
(g11
S'\x98\xd8\x05c3\xdf\xe2\xbf'
p1750
tp1751
Rp1752
ag7
(g11
S'\xb0\x07.\xe5]\xdf\xe2\xbf'
p1753
tp1754
Rp1755
ag7
(g11
S'\x96C\xafky\xdf\xe2\xbf'
p1756
tp1757
Rp1758
ag7
(g11
S'Tp\x9b\x1d\x8b\xdf\xe2\xbf'
p1759
tp1760
Rp1761
ag7
(g11
S'U\t\xbfv\x96\xdf\xe2\xbf'
p1762
tp1763
Rp1764
ag7
(g11
S'K\x1b+\xc6\x9d\xdf\xe2\xbf'
p1765
tp1766
Rp1767
ag7
(g11
S'Nn\xb9\x8a\xa2\xdf\xe2\xbf'
p1768
tp1769
Rp1770
ag7
(g11
S'8\xbb\xa8\xb6\xa5\xdf\xe2\xbf'
p1771
tp1772
Rp1773
ag7
(g11
S'\xa4\x7fv\xe0\xa7\xdf\xe2\xbf'
p1774
tp1775
Rp1776
ag7
(g11
S'r\x0c\xced\xa9\xdf\xe2\xbf'
p1777
tp1778
Rp1779
ag7
(g11
S'{\xac\xdd|\xaa\xdf\xe2\xbf'
p1780
tp1781
Rp1782
ag7
(g11
S'\xb8fUL\xab\xdf\xe2\xbf'
p1783
tp1784
Rp1785
ag7
(g11
S'\xf5\xe9\xf5\xdc\xae\xdf\xe2\xbf'
p1786
tp1787
Rp1788
ag7
(g11
S'\xf5\xe9\xf5\xdc\xae\xdf\xe2\xbf'
p1789
tp1790
Rp1791
ag7
(g11
S'\xf5\xe9\xf5\xdc\xae\xdf\xe2\xbf'
p1792
tp1793
Rp1794
ag7
(g11
S'\xf5\xe9\xf5\xdc\xae\xdf\xe2\xbf'
p1795
tp1796
Rp1797
ag7
(g11
S'\xf5\xe9\xf5\xdc\xae\xdf\xe2\xbf'
p1798
tp1799
Rp1800
ag7
(g11
S'\xf5\xe9\xf5\xdc\xae\xdf\xe2\xbf'
p1801
tp1802
Rp1803
ag7
(g11
S'\xf5\xe9\xf5\xdc\xae\xdf\xe2\xbf'
p1804
tp1805
Rp1806
ag7
(g11
S'\xf5\xe9\xf5\xdc\xae\xdf\xe2\xbf'
p1807
tp1808
Rp1809
ag7
(g11
S'\xf5\xe9\xf5\xdc\xae\xdf\xe2\xbf'
p1810
tp1811
Rp1812
ag7
(g11
S'\xf5\xe9\xf5\xdc\xae\xdf\xe2\xbf'
p1813
tp1814
Rp1815
ag7
(g11
S'\xf5\xe9\xf5\xdc\xae\xdf\xe2\xbf'
p1816
tp1817
Rp1818
ag7
(g11
S'\xf5\xe9\xf5\xdc\xae\xdf\xe2\xbf'
p1819
tp1820
Rp1821
ag7
(g11
S'\xf5\xe9\xf5\xdc\xae\xdf\xe2\xbf'
p1822
tp1823
Rp1824
ag7
(g11
S'\xf5\xe9\xf5\xdc\xae\xdf\xe2\xbf'
p1825
tp1826
Rp1827
ag7
(g11
S'\xf5\xe9\xf5\xdc\xae\xdf\xe2\xbf'
p1828
tp1829
Rp1830
ag7
(g11
S'\xf5\xe9\xf5\xdc\xae\xdf\xe2\xbf'
p1831
tp1832
Rp1833
ag7
(g11
S'\xf5\xe9\xf5\xdc\xae\xdf\xe2\xbf'
p1834
tp1835
Rp1836
ag7
(g11
S'\xf5\xe9\xf5\xdc\xae\xdf\xe2\xbf'
p1837
tp1838
Rp1839
ag7
(g11
S'\xf5\xe9\xf5\xdc\xae\xdf\xe2\xbf'
p1840
tp1841
Rp1842
ag7
(g11
S'\xf5\xe9\xf5\xdc\xae\xdf\xe2\xbf'
p1843
tp1844
Rp1845
ag7
(g11
S'\xf5\xe9\xf5\xdc\xae\xdf\xe2\xbf'
p1846
tp1847
Rp1848
ag7
(g11
S'\xf5\xe9\xf5\xdc\xae\xdf\xe2\xbf'
p1849
tp1850
Rp1851
ag7
(g11
S'\xf5\xe9\xf5\xdc\xae\xdf\xe2\xbf'
p1852
tp1853
Rp1854
ag7
(g11
S'\xb6\xbf\xa2\xdc\xae\xdf\xe2\xbf'
p1855
tp1856
Rp1857
ag7
(g11
S'\xb6\xbf\xa2\xdc\xae\xdf\xe2\xbf'
p1858
tp1859
Rp1860
ag7
(g11
S'\xb8\xbf\xa2\xdc\xae\xdf\xe2\xbf'
p1861
tp1862
Rp1863
ag7
(g11
S'\xb8\xbf\xa2\xdc\xae\xdf\xe2\xbf'
p1864
tp1865
Rp1866
ag7
(g11
S'\xb8\xbf\xa2\xdc\xae\xdf\xe2\xbf'
p1867
tp1868
Rp1869
ag7
(g11
S'\xb8\xbf\xa2\xdc\xae\xdf\xe2\xbf'
p1870
tp1871
Rp1872
ag7
(g11
S'\xb8\xbf\xa2\xdc\xae\xdf\xe2\xbf'
p1873
tp1874
Rp1875
ag7
(g11
S'\xb8\xbf\xa2\xdc\xae\xdf\xe2\xbf'
p1876
tp1877
Rp1878
ag7
(g11
S'\xb8\xbf\xa2\xdc\xae\xdf\xe2\xbf'
p1879
tp1880
Rp1881
ag7
(g11
S'\xb8\xbf\xa2\xdc\xae\xdf\xe2\xbf'
p1882
tp1883
Rp1884
ag7
(g11
S'\xb8\xbf\xa2\xdc\xae\xdf\xe2\xbf'
p1885
tp1886
Rp1887
ag7
(g11
S'\xb8\xbf\xa2\xdc\xae\xdf\xe2\xbf'
p1888
tp1889
Rp1890
ag7
(g11
S'\xb8\xbf\xa2\xdc\xae\xdf\xe2\xbf'
p1891
tp1892
Rp1893
ag7
(g11
S'\xb8\xbf\xa2\xdc\xae\xdf\xe2\xbf'
p1894
tp1895
Rp1896
ag7
(g11
S'\xb8\xbf\xa2\xdc\xae\xdf\xe2\xbf'
p1897
tp1898
Rp1899
ag7
(g11
S'\xb8\xbf\xa2\xdc\xae\xdf\xe2\xbf'
p1900
tp1901
Rp1902
ag7
(g11
S'\xb8\xbf\xa2\xdc\xae\xdf\xe2\xbf'
p1903
tp1904
Rp1905
ag7
(g11
S'\xb8\xbf\xa2\xdc\xae\xdf\xe2\xbf'
p1906
tp1907
Rp1908
ag7
(g11
S'\xb8\xbf\xa2\xdc\xae\xdf\xe2\xbf'
p1909
tp1910
Rp1911
ag7
(g11
S'\xb8\xbf\xa2\xdc\xae\xdf\xe2\xbf'
p1912
tp1913
Rp1914
ag7
(g11
S'\xb8\xbf\xa2\xdc\xae\xdf\xe2\xbf'
p1915
tp1916
Rp1917
ag7
(g11
S'\xb8\xbf\xa2\xdc\xae\xdf\xe2\xbf'
p1918
tp1919
Rp1920
ag7
(g11
S'\xd3\xb5mm\xad\xdf\xe2\xbf'
p1921
tp1922
Rp1923
ag7
(g11
S'\xd3\xb5mm\xad\xdf\xe2\xbf'
p1924
tp1925
Rp1926
ag7
(g11
S'\xd3\xb5mm\xad\xdf\xe2\xbf'
p1927
tp1928
Rp1929
ag7
(g11
S'\xd3\xb5mm\xad\xdf\xe2\xbf'
p1930
tp1931
Rp1932
ag7
(g11
S'\xd3\xb5mm\xad\xdf\xe2\xbf'
p1933
tp1934
Rp1935
ag7
(g11
S'\xd3\xb5mm\xad\xdf\xe2\xbf'
p1936
tp1937
Rp1938
ag7
(g11
S'\xd3\xb5mm\xad\xdf\xe2\xbf'
p1939
tp1940
Rp1941
ag7
(g11
S'\xd3\xb5mm\xad\xdf\xe2\xbf'
p1942
tp1943
Rp1944
ag7
(g11
S'\xd3\xb5mm\xad\xdf\xe2\xbf'
p1945
tp1946
Rp1947
ag7
(g11
S'\xd3\xb5mm\xad\xdf\xe2\xbf'
p1948
tp1949
Rp1950
ag7
(g11
S'\xd3\xb5mm\xad\xdf\xe2\xbf'
p1951
tp1952
Rp1953
ag7
(g11
S'\xe4\xdc\xd7,\xa7\xdf\xe2\xbf'
p1954
tp1955
Rp1956
ag7
(g11
S'\xe4\xdc\xd7,\xa7\xdf\xe2\xbf'
p1957
tp1958
Rp1959
ag7
(g11
S'\xe6\xdc\xd7,\xa7\xdf\xe2\xbf'
p1960
tp1961
Rp1962
ag7
(g11
S'\x9aZO\x02\x9f\xdf\xe2\xbf'
p1963
tp1964
Rp1965
ag7
(g11
S'\x9aZO\x02\x9f\xdf\xe2\xbf'
p1966
tp1967
Rp1968
ag7
(g11
S'\x17$@[\x92\xdf\xe2\xbf'
p1969
tp1970
Rp1971
ag7
(g11
S'B\xc2\x05\x82\x87\xdf\xe2\xbf'
p1972
tp1973
Rp1974
ag7
(g11
S'\x82\x7f\x10\xb0w\xdf\xe2\xbf'
p1975
tp1976
Rp1977
ag7
(g11
S'^s\x03\xa2`\xdf\xe2\xbf'
p1978
tp1979
Rp1980
ag7
(g11
S'xt\xd5+?\xdf\xe2\xbf'
p1981
tp1982
Rp1983
ag7
(g11
S'\xba\x04\x0b\xea\x0e\xdf\xe2\xbf'
p1984
tp1985
Rp1986
ag7
(g11
S' \xc3?\xdc\xc9\xde\xe2\xbf'
p1987
tp1988
Rp1989
ag7
(g11
S'\x91,\xe3\xe5g\xde\xe2\xbf'
p1990
tp1991
Rp1992
ag7
(g11
S'V\x00&3\xde\xdd\xe2\xbf'
p1993
tp1994
Rp1995
ag7
(g11
S'>\xa9\xe0\x84\x1e\xdd\xe2\xbf'
p1996
tp1997
Rp1998
ag7
(g11
S'\\\xbcMk\x16\xdc\xe2\xbf'
p1999
tp2000
Rp2001
ag7
(g11
S'\n\xd7G\x82\xae\xda\xe2\xbf'
p2002
tp2003
Rp2004
ag7
(g11
S'Eb\xd4\xce\xc9\xd8\xe2\xbf'
p2005
tp2006
Rp2007
ag7
(g11
S'4\x83\xfbnE\xd6\xe2\xbf'
p2008
tp2009
Rp2010
ag7
(g11
S'\xdb\xc5\x11\xda\xf8\xd2\xe2\xbf'
p2011
tp2012
Rp2013
ag7
(g11
S'\x06D\xa2\xf4\xb6\xce\xe2\xbf'
p2014
tp2015
Rp2016
ag7
(g11
S'\xed\xd0G)P\xc9\xe2\xbf'
p2017
tp2018
Rp2019
ag7
(g11
S'\xe2\xfa^\x1e\xa8\xc2\xe2\xbf'
p2020
tp2021
Rp2022
ag7
(g11
S'\xbc\xb2z\xad\xac\xba\xe2\xbf'
p2023
tp2024
Rp2025
ag7
(g11
S'\x90\x0f\x08\x8d5\xb1\xe2\xbf'
p2026
tp2027
Rp2028
ag7
(g11
S'\x83\x164\x07f\xa6\xe2\xbf'
p2029
tp2030
Rp2031
ag7
(g11
S'\x1d\xb5\x1c9U\x9a\xe2\xbf'
p2032
tp2033
Rp2034
ag7
(g11
S'\xa8\xaa\x98\xf5\x1b\x8d\xe2\xbf'
p2035
tp2036
Rp2037
ag7
(g11
S'\x84\xb9f%\xea~\xe2\xbf'
p2038
tp2039
Rp2040
ag7
(g11
S'\x82\x07\x95(\x94p\xe2\xbf'
p2041
tp2042
Rp2043
ag7
(g11
S'\x1c\x0c\xb5SYa\xe2\xbf'
p2044
tp2045
Rp2046
ag7
(g11
S'H\xed\x04\x96aP\xe2\xbf'
p2047
tp2048
Rp2049
ag7
(g11
S'i\x83\x9e\xd9\x11B\xe2\xbf'
p2050
tp2051
Rp2052
ag7
(g11
S'\x95\x95\xb4\n\xb24\xe2\xbf'
p2053
tp2054
Rp2055
ag7
(g11
S'\x00\xbeL\xc6S(\xe2\xbf'
p2056
tp2057
Rp2058
ag7
(g11
S'\x03\xde\xc5\xfa\x0b\x1c\xe2\xbf'
p2059
tp2060
Rp2061
ag7
(g11
S'\x9e\x0f\xd5\xea\xa2\x10\xe2\xbf'
p2062
tp2063
Rp2064
ag7
(g11
S'f\xcb\xb7\xa7Y\x06\xe2\xbf'
p2065
tp2066
Rp2067
ag7
(g11
S'\xb4\x99 k\xde\xfc\xe1\xbf'
p2068
tp2069
Rp2070
ag7
(g11
S'\xc2I\xf14&\xf4\xe1\xbf'
p2071
tp2072
Rp2073
ag7
(g11
S'\x10\xcb\x0f\xaf\x0b\xec\xe1\xbf'
p2074
tp2075
Rp2076
ag7
(g11
S'\xf8\x91\xf8\xc7\x8f\xe4\xe1\xbf'
p2077
tp2078
Rp2079
ag7
(g11
S'\x90Ij\xaf\xbd\xdd\xe1\xbf'
p2080
tp2081
Rp2082
ag7
(g11
S'^\xac7\xbe\x8d\xd7\xe1\xbf'
p2083
tp2084
Rp2085
ag7
(g11
S'\xcevr\xe0\xe6\xd1\xe1\xbf'
p2086
tp2087
Rp2088
ag7
(g11
S'\xde\xc1\xc1\x89\xaf\xcc\xe1\xbf'
p2089
tp2090
Rp2091
ag7
(g11
S'sft\x06\x8a\xc9\xe1\xbf'
p2092
tp2093
Rp2094
ag7
(g11
S'\x1a#\xa6\x05\x8a\xc9\xe1\xbf'
p2095
tp2096
Rp2097
ag7
(g11
S'\x1a6\x8e\x05\x8a\xc9\xe1\xbf'
p2098
tp2099
Rp2100
ag7
(g11
S'2\xc6x\x05\x8a\xc9\xe1\xbf'
p2101
tp2102
Rp2103
ag7
(g11
S'\xc4\xfce\x05\x8a\xc9\xe1\xbf'
p2104
tp2105
Rp2106
ag7
(g11
S'\xda\xf5U\x05\x8a\xc9\xe1\xbf'
p2107
tp2108
Rp2109
ag7
(g11
S'\x9a\xc4H\x05\x8a\xc9\xe1\xbf'
p2110
tp2111
Rp2112
ag7
(g11
S'\xaeq>\x05\x8a\xc9\xe1\xbf'
p2113
tp2114
Rp2115
ag7
(g11
S'R\xfa6\x05\x8a\xc9\xe1\xbf'
p2116
tp2117
Rp2118
ag7
(g11
S'\xa4O2\x05\x8a\xc9\xe1\xbf'
p2119
tp2120
Rp2121
ag7
(g11
S'\x98V0\x05\x8a\xc9\xe1\xbf'
p2122
tp2123
Rp2124
ag7
(g11
S'|\xe80\x05\x8a\xc9\xe1\xbf'
p2125
tp2126
Rp2127
ag7
(g11
S'\x1e\xd43\x05\x8a\xc9\xe1\xbf'
p2128
tp2129
Rp2130
ag7
(g11
S'b\xdf8\x05\x8a\xc9\xe1\xbf'
p2131
tp2132
Rp2133
ag7
(g11
S'@\xc9?\x05\x8a\xc9\xe1\xbf'
p2134
tp2135
Rp2136
ag7
(g11
S',LH\x05\x8a\xc9\xe1\xbf'
p2137
tp2138
Rp2139
ag7
(g11
S'J R\x05\x8a\xc9\xe1\xbf'
p2140
tp2141
Rp2142
ag7
(g11
S'\xda\xfd\\\x05\x8a\xc9\xe1\xbf'
p2143
tp2144
Rp2145
ag7
(g11
S',\x9fh\x05\x8a\xc9\xe1\xbf'
p2146
tp2147
Rp2148
ag7
(g11
S'k\xc2t\x05\x8a\xc9\xe1\xbf'
p2149
tp2150
Rp2151
ag7
(g11
S'\xf2*\x81\x05\x8a\xc9\xe1\xbf'
p2152
tp2153
Rp2154
ag7
(g11
S'\xbc\nQ\x05\x8a\xc9\xe1\xbf'
p2155
tp2156
Rp2157
ag7
(g11
S'\xb1\xa0i\x07\x8a\xc9\xe1\xbf'
p2158
tp2159
Rp2160
ag7
(g11
S'\xf0\xdb\xae\x06\x8a\xc9\xe1\xbf'
p2161
tp2162
Rp2163
ag7
(g11
S'k\xf8z\x05\x8a\xc9\xe1\xbf'
p2164
tp2165
Rp2166
ag7
(g11
S'\xda{\xa5\x06\x8a\xc9\xe1\xbf'
p2167
tp2168
Rp2169
ag7
(g11
S'j_\x90\x06\x8a\xc9\xe1\xbf'
p2170
tp2171
Rp2172
ag7
(g11
S'rft\x06\x8a\xc9\xe1\xbf'
p2173
tp2174
Rp2175
ag7
(g11
S'tft\x06\x8a\xc9\xe1\xbf'
p2176
tp2177
Rp2178
ag7
(g11
S'\x16\x01\xd2\x06\x8a\xc9\xe1\xbf'
p2179
tp2180
Rp2181
ag7
(g11
S'b\xcf\xd7\x05\x8a\xc9\xe1\xbf'
p2182
tp2183
Rp2184
ag7
(g11
S'!C\xee\x06\x8a\xc9\xe1\xbf'
p2185
tp2186
Rp2187
ag7
(g11
S'i\xef\xe3\x04\x8a\xc9\xe1\xbf'
p2188
tp2189
Rp2190
ag7
(g11
S'\xae\xf6u\x05\x8a\xc9\xe1\xbf'
p2191
tp2192
Rp2193
ag7
(g11
S'\xa4L\xee\x05\x8a\xc9\xe1\xbf'
p2194
tp2195
Rp2196
ag7
(g11
S'\xba`R\x06\x8a\xc9\xe1\xbf'
p2197
tp2198
Rp2199
ag7
(g11
S'\x0b\xbe\x90\x06\x8a\xc9\xe1\xbf'
p2200
tp2201
Rp2202
ag7
(g11
S'\x16\xc2\xbb\x06\x8a\xc9\xe1\xbf'
p2203
tp2204
Rp2205
ag7
(g11
S'Dk\xdf\x06\x8a\xc9\xe1\xbf'
p2206
tp2207
Rp2208
ag7
(g11
S'V\x9e\xfc\x06\x8a\xc9\xe1\xbf'
p2209
tp2210
Rp2211
ag7
(g11
S'^\xfb\x13\x07\x8a\xc9\xe1\xbf'
p2212
tp2213
Rp2214
ag7
(g11
S'\xbd\xfc\xdb\x05\x8a\xc9\xe1\xbf'
p2215
tp2216
Rp2217
ag7
(g11
S'\xc5Q1\x07\x8a\xc9\xe1\xbf'
p2218
tp2219
Rp2220
ag7
(g11
S'\x9a\xbc%\x05\x8a\xc9\xe1\xbf'
p2221
tp2222
Rp2223
ag7
(g11
S'tft\x06\x8a\xc9\xe1\xbf'
p2224
tp2225
Rp2226
ag7
(g11
S'rft\x06\x8a\xc9\xe1\xbf'
p2227
tp2228
Rp2229
ag7
(g11
S'tft\x06\x8a\xc9\xe1\xbf'
p2230
tp2231
Rp2232
ag7
(g11
S'tft\x06\x8a\xc9\xe1\xbf'
p2233
tp2234
Rp2235
ag7
(g11
S'rft\x06\x8a\xc9\xe1\xbf'
p2236
tp2237
Rp2238
ag7
(g11
S'tft\x06\x8a\xc9\xe1\xbf'
p2239
tp2240
Rp2241
ag7
(g11
S'tft\x06\x8a\xc9\xe1\xbf'
p2242
tp2243
Rp2244
ag7
(g11
S'rft\x06\x8a\xc9\xe1\xbf'
p2245
tp2246
Rp2247
ag7
(g11
S'tft\x06\x8a\xc9\xe1\xbf'
p2248
tp2249
Rp2250
ag7
(g11
S'tft\x06\x8a\xc9\xe1\xbf'
p2251
tp2252
Rp2253
ag7
(g11
S'rft\x06\x8a\xc9\xe1\xbf'
p2254
tp2255
Rp2256
ag7
(g11
S'tft\x06\x8a\xc9\xe1\xbf'
p2257
tp2258
Rp2259
ag7
(g11
S'tft\x06\x8a\xc9\xe1\xbf'
p2260
tp2261
Rp2262
ag7
(g11
S'rft\x06\x8a\xc9\xe1\xbf'
p2263
tp2264
Rp2265
ag7
(g11
S'tft\x06\x8a\xc9\xe1\xbf'
p2266
tp2267
Rp2268
ag7
(g11
S'tft\x06\x8a\xc9\xe1\xbf'
p2269
tp2270
Rp2271
ag7
(g11
S'rft\x06\x8a\xc9\xe1\xbf'
p2272
tp2273
Rp2274
ag7
(g11
S'tft\x06\x8a\xc9\xe1\xbf'
p2275
tp2276
Rp2277
ag7
(g11
S'tft\x06\x8a\xc9\xe1\xbf'
p2278
tp2279
Rp2280
ag7
(g11
S'rft\x06\x8a\xc9\xe1\xbf'
p2281
tp2282
Rp2283
ag7
(g11
S'tft\x06\x8a\xc9\xe1\xbf'
p2284
tp2285
Rp2286
ag7
(g11
S'tft\x06\x8a\xc9\xe1\xbf'
p2287
tp2288
Rp2289
ag7
(g11
S'rft\x06\x8a\xc9\xe1\xbf'
p2290
tp2291
Rp2292
ag7
(g11
S'tft\x06\x8a\xc9\xe1\xbf'
p2293
tp2294
Rp2295
ag7
(g11
S'tft\x06\x8a\xc9\xe1\xbf'
p2296
tp2297
Rp2298
ag7
(g11
S'rft\x06\x8a\xc9\xe1\xbf'
p2299
tp2300
Rp2301
ag7
(g11
S'tft\x06\x8a\xc9\xe1\xbf'
p2302
tp2303
Rp2304
ag7
(g11
S'tft\x06\x8a\xc9\xe1\xbf'
p2305
tp2306
Rp2307
ag7
(g11
S'rft\x06\x8a\xc9\xe1\xbf'
p2308
tp2309
Rp2310
ag7
(g11
S'tft\x06\x8a\xc9\xe1\xbf'
p2311
tp2312
Rp2313
ag7
(g11
S'tft\x06\x8a\xc9\xe1\xbf'
p2314
tp2315
Rp2316
ag7
(g11
S'rft\x06\x8a\xc9\xe1\xbf'
p2317
tp2318
Rp2319
ag7
(g11
S'tft\x06\x8a\xc9\xe1\xbf'
p2320
tp2321
Rp2322
ag7
(g11
S'tft\x06\x8a\xc9\xe1\xbf'
p2323
tp2324
Rp2325
ag7
(g11
S'rft\x06\x8a\xc9\xe1\xbf'
p2326
tp2327
Rp2328
ag7
(g11
S'tft\x06\x8a\xc9\xe1\xbf'
p2329
tp2330
Rp2331
ag7
(g11
S'tft\x06\x8a\xc9\xe1\xbf'
p2332
tp2333
Rp2334
ag7
(g11
S'rft\x06\x8a\xc9\xe1\xbf'
p2335
tp2336
Rp2337
ag7
(g11
S'tft\x06\x8a\xc9\xe1\xbf'
p2338
tp2339
Rp2340
ag7
(g11
S'tft\x06\x8a\xc9\xe1\xbf'
p2341
tp2342
Rp2343
ag7
(g11
S'rft\x06\x8a\xc9\xe1\xbf'
p2344
tp2345
Rp2346
ag7
(g11
S'tft\x06\x8a\xc9\xe1\xbf'
p2347
tp2348
Rp2349
ag7
(g11
S'tft\x06\x8a\xc9\xe1\xbf'
p2350
tp2351
Rp2352
ag7
(g11
S'rft\x06\x8a\xc9\xe1\xbf'
p2353
tp2354
Rp2355
ag7
(g11
S'tft\x06\x8a\xc9\xe1\xbf'
p2356
tp2357
Rp2358
ag7
(g11
S'tft\x06\x8a\xc9\xe1\xbf'
p2359
tp2360
Rp2361
ag7
(g11
S'rft\x06\x8a\xc9\xe1\xbf'
p2362
tp2363
Rp2364
ag7
(g11
S'tft\x06\x8a\xc9\xe1\xbf'
p2365
tp2366
Rp2367
ag7
(g11
S'tft\x06\x8a\xc9\xe1\xbf'
p2368
tp2369
Rp2370
ag7
(g11
S'rft\x06\x8a\xc9\xe1\xbf'
p2371
tp2372
Rp2373
ag7
(g11
S'tft\x06\x8a\xc9\xe1\xbf'
p2374
tp2375
Rp2376
ag7
(g11
S'tft\x06\x8a\xc9\xe1\xbf'
p2377
tp2378
Rp2379
ag7
(g11
S'rft\x06\x8a\xc9\xe1\xbf'
p2380
tp2381
Rp2382
ag7
(g11
S'tft\x06\x8a\xc9\xe1\xbf'
p2383
tp2384
Rp2385
ag7
(g11
S'tft\x06\x8a\xc9\xe1\xbf'
p2386
tp2387
Rp2388
ag7
(g11
S'rft\x06\x8a\xc9\xe1\xbf'
p2389
tp2390
Rp2391
ag7
(g11
S'tft\x06\x8a\xc9\xe1\xbf'
p2392
tp2393
Rp2394
ag7
(g11
S'tft\x06\x8a\xc9\xe1\xbf'
p2395
tp2396
Rp2397
ag7
(g11
S'rft\x06\x8a\xc9\xe1\xbf'
p2398
tp2399
Rp2400
ag7
(g11
S'tft\x06\x8a\xc9\xe1\xbf'
p2401
tp2402
Rp2403
ag7
(g11
S'tft\x06\x8a\xc9\xe1\xbf'
p2404
tp2405
Rp2406
ag7
(g11
S'rft\x06\x8a\xc9\xe1\xbf'
p2407
tp2408
Rp2409
ag7
(g11
S'tft\x06\x8a\xc9\xe1\xbf'
p2410
tp2411
Rp2412
ag7
(g11
S'tft\x06\x8a\xc9\xe1\xbf'
p2413
tp2414
Rp2415
asS'eps_s'
p2416
(lp2417
F0.04649652443687406
aF0.04649652443687406
aF0.04649652443687406
aF0.04649652443687406
aF0.04649652443687406
aF0.04649652443687406
aF0.04649652443687406
aF0.04649652443687406
aF0.04649652443687406
aF0.04649652443687406
aF0.04649652443687406
aF0.04649652443687406
aF0.04649652443687406
aF0.04649652443687406
aF0.04649652443687406
aF0.04649652443687406
aF0.04649652443687406
aF0.04649652443687406
aF0.04649652443687406
aF0.04649652443687406
aF0.04649652443687406
aF0.04649652443687406
aF0.04649652443687406
aF0.04649652443687406
aF0.04649652443687406
aF0.04649652443687406
aF0.04649652443687406
aF0.04649652443687406
aF0.04649652443687406
aF0.04649652443687406
aF0.04649652443687406
aF0.04649652443687406
aF0.04649652443687406
aF0.04649652443687406
aF0.04649652443687406
aF0.04649652443687406
aF0.04649652443687406
aF0.04649652443687406
aF0.04649652443687406
aF0.04649652443687406
aF0.04649652443687406
aF0.04649652443687406
aF0.04649652443687406
aF0.04649652443687406
aF0.04649652443687406
aF0.04649652443687406
aF0.04649652443687406
aF0.04649652443687406
aF0.04649652443687406
aF0.04649652443687406
aF0.04649652443687406
aF0.04649652443687406
aF0.04649652443687406
aF0.04649652443687406
aF0.04649652443687406
aF0.04649652443687406
aF0.04649652443687406
aF0.04649652443687406
aF0.04649652443687406
aF0.04649652443687406
aF0.04649652443687406
aF0.04649652443687406
aF0.04649652443687406
aF0.04649652443687406
aF0.04649652443687406
aF0.04649652443687406
aF0.04649652443687406
aF0.04649652443687406
aF0.04649652443687406
aF0.04649652443687406
aF0.04649652443687406
aF0.04649652443687406
aF0.04649652443687406
aF0.04649652443687406
aF0.04649652443687406
aF0.04649652443687406
aF0.04649652443687406
aF0.04649652443687406
aF0.04649652443687406
aF0.04649652443687406
aF0.04649652443687406
aF0.04649652443687406
aF0.04649652443687406
aF0.04649652443687406
aF0.04649652443687406
aF0.04649652443687406
aF0.04649652443687406
aF0.04649652443687406
aF0.04649652443687406
aF0.04649652443687406
aF0.04649652443687406
aF0.04649652443687406
aF0.04649652443687406
aF0.04649652443687406
aF0.04649652443687406
aF0.04649652443687406
aF0.04649652443687406
aF0.04649652443687406
aF0.04649652443687406
aF0.04649652443687406
aF0.04649652443687406
aF0.04649651512703959
aF0.04649651512703959
aF0.04649651512703959
aF0.04649651512703959
aF0.04649651512703959
aF0.04649651512703959
aF0.04649651512703959
aF0.04649651512703959
aF0.04649651512703959
aF0.04649651512703959
aF0.04649651512703959
aF0.04649651512703959
aF0.04649651512703959
aF0.04649651512703959
aF0.04649651512703959
aF0.04649651512703959
aF0.04649651512703959
aF0.04649651512703959
aF0.04649651512703959
aF0.04649651512703959
aF0.04649651512703959
aF0.046495516809194545
aF0.046495516809194545
aF0.046495516809194545
aF0.046495516809194545
aF0.046495516809194545
aF0.046495516809194545
aF0.046495516809194545
aF0.04649243228274654
aF0.0464924323995501
aF0.0464924323995501
aF0.046486220410193096
aF0.04648169549723319
aF0.04647469206728525
aF0.04646386455798418
aF0.04644726668349171
aF0.04642218120784822
aF0.04638495949253022
aF0.04633092064103762
aF0.0462543671159254
aF0.04614875923504954
aF0.046007019971800345
aF0.045821867504443864
aF0.04558726444490637
aF0.04529591661311836
aF0.044940324533845076
aF0.04451298245154114
aF0.044004560323778856
aF0.04340249458914821
aF0.04270008610426133
aF0.04188981901049451
aF0.04096231255987898
aF0.03989892296982768
aF0.03868056195604644
aF0.03727800454845055
aF0.035673296156852184
aF0.033957725539418025
aF0.03205127389363305
aF0.02991631433843743
aF0.027349105560587936
aF0.02493139736391428
aF0.02255385528713921
ag7
(g11
S'W\xe3\xeb\xb3\x12\xaf\x94?'
p2418
tp2419
Rp2420
ag7
(g11
S'\xd3\xb0\xd4\t\xc4j\x92?'
p2421
tp2422
Rp2423
ag7
(g11
S'\xb9z\xae\tZ^\x90?'
p2424
tp2425
Rp2426
ag7
(g11
S'\x98\xf2\xc4\xe8\xf3\x18\x8d?'
p2427
tp2428
Rp2429
ag7
(g11
S'\xa8K\xa0\x1a\xde\x0b\x8a?'
p2430
tp2431
Rp2432
aF0.011497530456337345
aF0.010533567988520107
aF0.009800190788392261
aF0.009255722248789433
aF0.008860232734530704
aF0.008578479634109371
aF0.008381202818626594
aF0.008245221945076703
aF0.008152832758183121
aF0.008090900709757627
aF0.008049907957003844
aF0.008023091172785756
aF0.008005725089395671
aF0.007994560508910838
aF0.007987400168894656
aF0.007982787543574992
aF0.007979779110323782
aF0.007977777829894965
aF0.007976412789527564
aF0.00797545558257229
aF0.007974765270389985
aF0.007974253889731381
aF0.007972004371991987
aF0.007972004371991987
aF0.007972004371991987
aF0.007972004371991987
aF0.007972004371991987
aF0.007972004371991987
aF0.007972004371991987
aF0.007972004371991987
aF0.007972004371991987
aF0.007972004371991987
aF0.007972004371991987
aF0.007972004371991987
aF0.007972004371991987
aF0.007972004371991987
aF0.007972004371991987
aF0.007972004371991987
aF0.007972004371991987
aF0.007972004371991987
aF0.007972004371991987
aF0.007972004371991987
aF0.007972004371991987
aF0.007972004371991987
aF0.007972004371991987
aF0.007972005172744899
aF0.007972005172744899
aF0.007972005172744899
aF0.007972005172744899
aF0.007972005172744899
aF0.007972005172744899
aF0.007972005172744899
aF0.007972005172744899
aF0.007972005172744899
aF0.007972005172744899
aF0.007972005172744899
aF0.007972005172744899
aF0.007972005172744899
aF0.007972005172744899
aF0.007972005172744899
aF0.007972005172744899
aF0.007972005172744899
aF0.007972005172744899
aF0.007972005172744899
aF0.007972005172744899
aF0.007972005172744899
aF0.007972005172744899
aF0.007972910297368518
aF0.007972910297368518
aF0.007972910297368518
aF0.007972910297368518
aF0.007972910297368518
aF0.007972910297368518
aF0.007972910297368518
aF0.007972910297368518
aF0.007972910297368518
aF0.007972910297368518
aF0.007972910297368518
aF0.007976855524914405
aF0.007976855524914405
aF0.007976855524914405
aF0.0079820083192773
aF0.0079820083192773
aF0.007989991828607414
aF0.007996836841285472
aF0.008006818423332089
aF0.008021364022202826
aF0.00804247393523757
aF0.00807291480033122
aF0.008116468367395645
aF0.008178242654849004
aF0.008265049450178955
aF0.008385839592205582
aF0.008552173873538252
aF0.008778679149345553
aF0.009083404952313108
aF0.009487951417197098
aF0.010017205622701347
aF0.010698512005346134
aF0.011560151575742535
aF0.012617624595147191
aF0.01387922226189054
aF0.015365741535168056
aF0.017050422513992948
aF0.018913363354063267
aF0.020932951894693238
aF0.0230733909821756
aF0.025204275498096597
aF0.027431411800604544
aF0.029864366692889936
aF0.03187317418426404
aF0.033711260676608804
aF0.03537438483559189
aF0.03698766566648224
aF0.03844959598138486
aF0.039734130951562766
aF0.040887690530056815
aF0.04192057235807319
aF0.04285446030706745
aF0.04369288010315898
aF0.04443529921303979
aF0.04508954246140536
aF0.04567004055171545
aF0.0461902953675019
ag7
(g11
S'p)w?d\xce\xa7?'
p2433
tp2434
Rp2435
ag7
(g11
S'\xc7\xca\xa4Id\xce\xa7?'
p2436
tp2437
Rp2438
ag7
(g11
S'\x11\t\xd3Jd\xce\xa7?'
p2439
tp2440
Rp2441
ag7
(g11
S'a\xd7\xe1Kd\xce\xa7?'
p2442
tp2443
Rp2444
ag7
(g11
S'\xd8*\xcfLd\xce\xa7?'
p2445
tp2446
Rp2447
ag7
(g11
S'\xf6\xa0\x99Md\xce\xa7?'
p2448
tp2449
Rp2450
ag7
(g11
S'hH@Nd\xce\xa7?'
p2451
tp2452
Rp2453
ag7
(g11
S'>\xb3\xc2Nd\xce\xa7?'
p2454
tp2455
Rp2456
ag7
(g11
S'\x98\x04!Od\xce\xa7?'
p2457
tp2458
Rp2459
ag7
(g11
S'r\xf8[Od\xce\xa7?'
p2460
tp2461
Rp2462
ag7
(g11
S'{\xe4tOd\xce\xa7?'
p2463
tp2464
Rp2465
ag7
(g11
S'd\xb1mOd\xce\xa7?'
p2466
tp2467
Rp2468
ag7
(g11
S'\xe0\xccHOd\xce\xa7?'
p2469
tp2470
Rp2471
ag7
(g11
S'\x15\x15\tOd\xce\xa7?'
p2472
tp2473
Rp2474
ag7
(g11
S'\x05\xbf\xb1Nd\xce\xa7?'
p2475
tp2476
Rp2477
ag7
(g11
S'\xc79FNd\xce\xa7?'
p2478
tp2479
Rp2480
ag7
(g11
S'\xb3\x10\xcaMd\xce\xa7?'
p2481
tp2482
Rp2483
ag7
(g11
S'\x85\xce@Md\xce\xa7?'
p2484
tp2485
Rp2486
ag7
(g11
S'[\xe3\xadLd\xce\xa7?'
p2487
tp2488
Rp2489
ag7
(g11
S'\xd3\x8e\x14Ld\xce\xa7?'
p2490
tp2491
Rp2492
ag7
(g11
S'3\xcfwKd\xce\xa7?'
p2493
tp2494
Rp2495
ag7
(g11
S'\xfe\xc2\xd7Md\xce\xa7?'
p2496
tp2497
Rp2498
ag7
(g11
S'\xbfO]3d\xce\xa7?'
p2499
tp2500
Rp2501
ag7
(g11
S'\x1b\xad\x94<d\xce\xa7?'
p2502
tp2503
Rp2504
ag7
(g11
S'\x1f\x19\xc6Kd\xce\xa7?'
p2505
tp2506
Rp2507
ag7
(g11
S'R\x1c\x0b=d\xce\xa7?'
p2508
tp2509
Rp2510
ag7
(g11
S':\xcc\x15>d\xce\xa7?'
p2511
tp2512
Rp2513
ag7
(g11
S'p)w?d\xce\xa7?'
p2514
tp2515
Rp2516
ag7
(g11
S'p)w?d\xce\xa7?'
p2517
tp2518
Rp2519
ag7
(g11
S'\x0f\xb4\xd8:d\xce\xa7?'
p2520
tp2521
Rp2522
ag7
(g11
S'\x9eK1Gd\xce\xa7?'
p2523
tp2524
Rp2525
ag7
(g11
S'\x94\xbbs9d\xce\xa7?'
p2526
tp2527
Rp2528
ag7
(g11
S'\xe4\x0e:Sd\xce\xa7?'
p2529
tp2530
Rp2531
ag7
(g11
S'\xb9X\x05Ld\xce\xa7?'
p2532
tp2533
Rp2534
ag7
(g11
S'\xa42\x15Fd\xce\xa7?'
p2535
tp2536
Rp2537
ag7
(g11
S'\x87\xf3$Ad\xce\xa7?'
p2538
tp2539
Rp2540
ag7
(g11
S'\xc2 \x11>d\xce\xa7?'
p2541
tp2542
Rp2543
ag7
(g11
S'w\xba\xf1;d\xce\xa7?'
p2544
tp2545
Rp2546
ag7
(g11
S'\x91=/:d\xce\xa7?'
p2547
tp2548
Rp2549
ag7
(g11
S'h`\xbe8d\xce\xa7?'
p2550
tp2551
Rp2552
ag7
(g11
S'\xa4<\x977d\xce\xa7?'
p2553
tp2554
Rp2555
ag7
(g11
S'\xe4\x86\xfcFd\xce\xa7?'
p2556
tp2557
Rp2558
ag7
(g11
S'\x05\xa1$6d\xce\xa7?'
p2559
tp2560
Rp2561
ag7
(g11
S'\x19\xd1\xfaOd\xce\xa7?'
p2562
tp2563
Rp2564
ag7
(g11
S'p)w?d\xce\xa7?'
p2565
tp2566
Rp2567
ag7
(g11
S'p)w?d\xce\xa7?'
p2568
tp2569
Rp2570
ag7
(g11
S'p)w?d\xce\xa7?'
p2571
tp2572
Rp2573
ag7
(g11
S'p)w?d\xce\xa7?'
p2574
tp2575
Rp2576
ag7
(g11
S'p)w?d\xce\xa7?'
p2577
tp2578
Rp2579
ag7
(g11
S'p)w?d\xce\xa7?'
p2580
tp2581
Rp2582
ag7
(g11
S'p)w?d\xce\xa7?'
p2583
tp2584
Rp2585
ag7
(g11
S'p)w?d\xce\xa7?'
p2586
tp2587
Rp2588
ag7
(g11
S'p)w?d\xce\xa7?'
p2589
tp2590
Rp2591
ag7
(g11
S'p)w?d\xce\xa7?'
p2592
tp2593
Rp2594
ag7
(g11
S'p)w?d\xce\xa7?'
p2595
tp2596
Rp2597
ag7
(g11
S'p)w?d\xce\xa7?'
p2598
tp2599
Rp2600
ag7
(g11
S'p)w?d\xce\xa7?'
p2601
tp2602
Rp2603
ag7
(g11
S'p)w?d\xce\xa7?'
p2604
tp2605
Rp2606
ag7
(g11
S'p)w?d\xce\xa7?'
p2607
tp2608
Rp2609
ag7
(g11
S'p)w?d\xce\xa7?'
p2610
tp2611
Rp2612
ag7
(g11
S'p)w?d\xce\xa7?'
p2613
tp2614
Rp2615
ag7
(g11
S'p)w?d\xce\xa7?'
p2616
tp2617
Rp2618
ag7
(g11
S'p)w?d\xce\xa7?'
p2619
tp2620
Rp2621
ag7
(g11
S'p)w?d\xce\xa7?'
p2622
tp2623
Rp2624
ag7
(g11
S'p)w?d\xce\xa7?'
p2625
tp2626
Rp2627
ag7
(g11
S'p)w?d\xce\xa7?'
p2628
tp2629
Rp2630
ag7
(g11
S'p)w?d\xce\xa7?'
p2631
tp2632
Rp2633
ag7
(g11
S'p)w?d\xce\xa7?'
p2634
tp2635
Rp2636
ag7
(g11
S'p)w?d\xce\xa7?'
p2637
tp2638
Rp2639
ag7
(g11
S'p)w?d\xce\xa7?'
p2640
tp2641
Rp2642
ag7
(g11
S'p)w?d\xce\xa7?'
p2643
tp2644
Rp2645
ag7
(g11
S'p)w?d\xce\xa7?'
p2646
tp2647
Rp2648
ag7
(g11
S'p)w?d\xce\xa7?'
p2649
tp2650
Rp2651
ag7
(g11
S'p)w?d\xce\xa7?'
p2652
tp2653
Rp2654
ag7
(g11
S'p)w?d\xce\xa7?'
p2655
tp2656
Rp2657
ag7
(g11
S'p)w?d\xce\xa7?'
p2658
tp2659
Rp2660
ag7
(g11
S'p)w?d\xce\xa7?'
p2661
tp2662
Rp2663
ag7
(g11
S'p)w?d\xce\xa7?'
p2664
tp2665
Rp2666
ag7
(g11
S'p)w?d\xce\xa7?'
p2667
tp2668
Rp2669
ag7
(g11
S'p)w?d\xce\xa7?'
p2670
tp2671
Rp2672
ag7
(g11
S'p)w?d\xce\xa7?'
p2673
tp2674
Rp2675
ag7
(g11
S'p)w?d\xce\xa7?'
p2676
tp2677
Rp2678
ag7
(g11
S'p)w?d\xce\xa7?'
p2679
tp2680
Rp2681
ag7
(g11
S'p)w?d\xce\xa7?'
p2682
tp2683
Rp2684
ag7
(g11
S'p)w?d\xce\xa7?'
p2685
tp2686
Rp2687
ag7
(g11
S'p)w?d\xce\xa7?'
p2688
tp2689
Rp2690
ag7
(g11
S'p)w?d\xce\xa7?'
p2691
tp2692
Rp2693
ag7
(g11
S'p)w?d\xce\xa7?'
p2694
tp2695
Rp2696
ag7
(g11
S'p)w?d\xce\xa7?'
p2697
tp2698
Rp2699
ag7
(g11
S'p)w?d\xce\xa7?'
p2700
tp2701
Rp2702
ag7
(g11
S'p)w?d\xce\xa7?'
p2703
tp2704
Rp2705
ag7
(g11
S'p)w?d\xce\xa7?'
p2706
tp2707
Rp2708
ag7
(g11
S'p)w?d\xce\xa7?'
p2709
tp2710
Rp2711
ag7
(g11
S'p)w?d\xce\xa7?'
p2712
tp2713
Rp2714
ag7
(g11
S'p)w?d\xce\xa7?'
p2715
tp2716
Rp2717
ag7
(g11
S'p)w?d\xce\xa7?'
p2718
tp2719
Rp2720
ag7
(g11
S'p)w?d\xce\xa7?'
p2721
tp2722
Rp2723
ag7
(g11
S'p)w?d\xce\xa7?'
p2724
tp2725
Rp2726
ag7
(g11
S'p)w?d\xce\xa7?'
p2727
tp2728
Rp2729
ag7
(g11
S'p)w?d\xce\xa7?'
p2730
tp2731
Rp2732
ag7
(g11
S'p)w?d\xce\xa7?'
p2733
tp2734
Rp2735
ag7
(g11
S'p)w?d\xce\xa7?'
p2736
tp2737
Rp2738
ag7
(g11
S'p)w?d\xce\xa7?'
p2739
tp2740
Rp2741
ag7
(g11
S'p)w?d\xce\xa7?'
p2742
tp2743
Rp2744
ag7
(g11
S'p)w?d\xce\xa7?'
p2745
tp2746
Rp2747
ag7
(g11
S'p)w?d\xce\xa7?'
p2748
tp2749
Rp2750
ag7
(g11
S'p)w?d\xce\xa7?'
p2751
tp2752
Rp2753
ag7
(g11
S'p)w?d\xce\xa7?'
p2754
tp2755
Rp2756
asS'F_l'
p2757
(lp2758
g7
(g11
S'\xa8\x06\x11\\\xbd;Q\xc0'
p2759
tp2760
Rp2761
ag7
(g11
S'\xa8\x06\x11\\\xbd;Q\xc0'
p2762
tp2763
Rp2764
ag7
(g11
S'\xa8\x06\x11\\\xbd;Q\xc0'
p2765
tp2766
Rp2767
ag7
(g11
S'\xa8\x06\x11\\\xbd;Q\xc0'
p2768
tp2769
Rp2770
ag7
(g11
S'\xa8\x06\x11\\\xbd;Q\xc0'
p2771
tp2772
Rp2773
ag7
(g11
S'\xa8\x06\x11\\\xbd;Q\xc0'
p2774
tp2775
Rp2776
ag7
(g11
S'\xa8\x06\x11\\\xbd;Q\xc0'
p2777
tp2778
Rp2779
ag7
(g11
S'\xa8\x06\x11\\\xbd;Q\xc0'
p2780
tp2781
Rp2782
ag7
(g11
S'\xa8\x06\x11\\\xbd;Q\xc0'
p2783
tp2784
Rp2785
ag7
(g11
S'\xa8\x06\x11\\\xbd;Q\xc0'
p2786
tp2787
Rp2788
ag7
(g11
S'\xa8\x06\x11\\\xbd;Q\xc0'
p2789
tp2790
Rp2791
ag7
(g11
S'\xa8\x06\x11\\\xbd;Q\xc0'
p2792
tp2793
Rp2794
ag7
(g11
S'\xa8\x06\x11\\\xbd;Q\xc0'
p2795
tp2796
Rp2797
ag7
(g11
S'\xa8\x06\x11\\\xbd;Q\xc0'
p2798
tp2799
Rp2800
ag7
(g11
S'\xa8\x06\x11\\\xbd;Q\xc0'
p2801
tp2802
Rp2803
ag7
(g11
S'\xa8\x06\x11\\\xbd;Q\xc0'
p2804
tp2805
Rp2806
ag7
(g11
S'\xa8\x06\x11\\\xbd;Q\xc0'
p2807
tp2808
Rp2809
ag7
(g11
S'\xa8\x06\x11\\\xbd;Q\xc0'
p2810
tp2811
Rp2812
ag7
(g11
S'\xa8\x06\x11\\\xbd;Q\xc0'
p2813
tp2814
Rp2815
ag7
(g11
S'\xa8\x06\x11\\\xbd;Q\xc0'
p2816
tp2817
Rp2818
ag7
(g11
S'\xa8\x06\x11\\\xbd;Q\xc0'
p2819
tp2820
Rp2821
ag7
(g11
S'\xa8\x06\x11\\\xbd;Q\xc0'
p2822
tp2823
Rp2824
ag7
(g11
S'\xa8\x06\x11\\\xbd;Q\xc0'
p2825
tp2826
Rp2827
ag7
(g11
S'\xa8\x06\x11\\\xbd;Q\xc0'
p2828
tp2829
Rp2830
ag7
(g11
S'\xa8\x06\x11\\\xbd;Q\xc0'
p2831
tp2832
Rp2833
ag7
(g11
S'\xa8\x06\x11\\\xbd;Q\xc0'
p2834
tp2835
Rp2836
ag7
(g11
S'\xa8\x06\x11\\\xbd;Q\xc0'
p2837
tp2838
Rp2839
ag7
(g11
S'\xa8\x06\x11\\\xbd;Q\xc0'
p2840
tp2841
Rp2842
ag7
(g11
S'\xa8\x06\x11\\\xbd;Q\xc0'
p2843
tp2844
Rp2845
ag7
(g11
S'\xa8\x06\x11\\\xbd;Q\xc0'
p2846
tp2847
Rp2848
ag7
(g11
S'\xa8\x06\x11\\\xbd;Q\xc0'
p2849
tp2850
Rp2851
ag7
(g11
S'\xa8\x06\x11\\\xbd;Q\xc0'
p2852
tp2853
Rp2854
ag7
(g11
S'\xa8\x06\x11\\\xbd;Q\xc0'
p2855
tp2856
Rp2857
ag7
(g11
S'\xa8\x06\x11\\\xbd;Q\xc0'
p2858
tp2859
Rp2860
ag7
(g11
S'\xa8\x06\x11\\\xbd;Q\xc0'
p2861
tp2862
Rp2863
ag7
(g11
S'\xa8\x06\x11\\\xbd;Q\xc0'
p2864
tp2865
Rp2866
ag7
(g11
S'\xa8\x06\x11\\\xbd;Q\xc0'
p2867
tp2868
Rp2869
ag7
(g11
S'\xa8\x06\x11\\\xbd;Q\xc0'
p2870
tp2871
Rp2872
ag7
(g11
S'\xa8\x06\x11\\\xbd;Q\xc0'
p2873
tp2874
Rp2875
ag7
(g11
S'\xa8\x06\x11\\\xbd;Q\xc0'
p2876
tp2877
Rp2878
ag7
(g11
S'\xa8\x06\x11\\\xbd;Q\xc0'
p2879
tp2880
Rp2881
ag7
(g11
S'\xa8\x06\x11\\\xbd;Q\xc0'
p2882
tp2883
Rp2884
ag7
(g11
S'\xa8\x06\x11\\\xbd;Q\xc0'
p2885
tp2886
Rp2887
ag7
(g11
S'\xa8\x06\x11\\\xbd;Q\xc0'
p2888
tp2889
Rp2890
ag7
(g11
S'\xa8\x06\x11\\\xbd;Q\xc0'
p2891
tp2892
Rp2893
ag7
(g11
S'\xa8\x06\x11\\\xbd;Q\xc0'
p2894
tp2895
Rp2896
ag7
(g11
S'\xa8\x06\x11\\\xbd;Q\xc0'
p2897
tp2898
Rp2899
ag7
(g11
S'\xa8\x06\x11\\\xbd;Q\xc0'
p2900
tp2901
Rp2902
ag7
(g11
S'\xa8\x06\x11\\\xbd;Q\xc0'
p2903
tp2904
Rp2905
ag7
(g11
S'\xa8\x06\x11\\\xbd;Q\xc0'
p2906
tp2907
Rp2908
ag7
(g11
S'\xa8\x06\x11\\\xbd;Q\xc0'
p2909
tp2910
Rp2911
ag7
(g11
S'\xa8\x06\x11\\\xbd;Q\xc0'
p2912
tp2913
Rp2914
ag7
(g11
S'\xa8\x06\x11\\\xbd;Q\xc0'
p2915
tp2916
Rp2917
ag7
(g11
S'\xa8\x06\x11\\\xbd;Q\xc0'
p2918
tp2919
Rp2920
ag7
(g11
S'\xa8\x06\x11\\\xbd;Q\xc0'
p2921
tp2922
Rp2923
ag7
(g11
S'\xa8\x06\x11\\\xbd;Q\xc0'
p2924
tp2925
Rp2926
ag7
(g11
S'\xa8\x06\x11\\\xbd;Q\xc0'
p2927
tp2928
Rp2929
ag7
(g11
S'\xa8\x06\x11\\\xbd;Q\xc0'
p2930
tp2931
Rp2932
ag7
(g11
S'\xa8\x06\x11\\\xbd;Q\xc0'
p2933
tp2934
Rp2935
ag7
(g11
S'\xa8\x06\x11\\\xbd;Q\xc0'
p2936
tp2937
Rp2938
ag7
(g11
S'\xa8\x06\x11\\\xbd;Q\xc0'
p2939
tp2940
Rp2941
ag7
(g11
S'\xa8\x06\x11\\\xbd;Q\xc0'
p2942
tp2943
Rp2944
ag7
(g11
S'\xa8\x06\x11\\\xbd;Q\xc0'
p2945
tp2946
Rp2947
ag7
(g11
S'\xa8\x06\x11\\\xbd;Q\xc0'
p2948
tp2949
Rp2950
ag7
(g11
S'\xa8\x06\x11\\\xbd;Q\xc0'
p2951
tp2952
Rp2953
ag7
(g11
S'\xa8\x06\x11\\\xbd;Q\xc0'
p2954
tp2955
Rp2956
ag7
(g11
S'\xa8\x06\x11\\\xbd;Q\xc0'
p2957
tp2958
Rp2959
ag7
(g11
S'\xa8\x06\x11\\\xbd;Q\xc0'
p2960
tp2961
Rp2962
ag7
(g11
S'\xa8\x06\x11\\\xbd;Q\xc0'
p2963
tp2964
Rp2965
ag7
(g11
S'\xa8\x06\x11\\\xbd;Q\xc0'
p2966
tp2967
Rp2968
ag7
(g11
S'\xa8\x06\x11\\\xbd;Q\xc0'
p2969
tp2970
Rp2971
ag7
(g11
S'\xa8\x06\x11\\\xbd;Q\xc0'
p2972
tp2973
Rp2974
ag7
(g11
S'\xa8\x06\x11\\\xbd;Q\xc0'
p2975
tp2976
Rp2977
ag7
(g11
S'\xa8\x06\x11\\\xbd;Q\xc0'
p2978
tp2979
Rp2980
ag7
(g11
S'\xa8\x06\x11\\\xbd;Q\xc0'
p2981
tp2982
Rp2983
ag7
(g11
S'\xa8\x06\x11\\\xbd;Q\xc0'
p2984
tp2985
Rp2986
ag7
(g11
S'\xa8\x06\x11\\\xbd;Q\xc0'
p2987
tp2988
Rp2989
ag7
(g11
S'\xa8\x06\x11\\\xbd;Q\xc0'
p2990
tp2991
Rp2992
ag7
(g11
S'\xa8\x06\x11\\\xbd;Q\xc0'
p2993
tp2994
Rp2995
ag7
(g11
S'\xa8\x06\x11\\\xbd;Q\xc0'
p2996
tp2997
Rp2998
ag7
(g11
S'\xa8\x06\x11\\\xbd;Q\xc0'
p2999
tp3000
Rp3001
ag7
(g11
S'\xa8\x06\x11\\\xbd;Q\xc0'
p3002
tp3003
Rp3004
ag7
(g11
S'\xa8\x06\x11\\\xbd;Q\xc0'
p3005
tp3006
Rp3007
ag7
(g11
S'\xa8\x06\x11\\\xbd;Q\xc0'
p3008
tp3009
Rp3010
ag7
(g11
S'\xa8\x06\x11\\\xbd;Q\xc0'
p3011
tp3012
Rp3013
ag7
(g11
S'\xa8\x06\x11\\\xbd;Q\xc0'
p3014
tp3015
Rp3016
ag7
(g11
S'\xa8\x06\x11\\\xbd;Q\xc0'
p3017
tp3018
Rp3019
ag7
(g11
S'\xa8\x06\x11\\\xbd;Q\xc0'
p3020
tp3021
Rp3022
ag7
(g11
S'\xa8\x06\x11\\\xbd;Q\xc0'
p3023
tp3024
Rp3025
ag7
(g11
S'\xa8\x06\x11\\\xbd;Q\xc0'
p3026
tp3027
Rp3028
ag7
(g11
S'\xa8\x06\x11\\\xbd;Q\xc0'
p3029
tp3030
Rp3031
ag7
(g11
S'\xa8\x06\x11\\\xbd;Q\xc0'
p3032
tp3033
Rp3034
ag7
(g11
S'\xa8\x06\x11\\\xbd;Q\xc0'
p3035
tp3036
Rp3037
ag7
(g11
S'\xa8\x06\x11\\\xbd;Q\xc0'
p3038
tp3039
Rp3040
ag7
(g11
S'\xa8\x06\x11\\\xbd;Q\xc0'
p3041
tp3042
Rp3043
ag7
(g11
S'\xa8\x06\x11\\\xbd;Q\xc0'
p3044
tp3045
Rp3046
ag7
(g11
S'\xa8\x06\x11\\\xbd;Q\xc0'
p3047
tp3048
Rp3049
ag7
(g11
S'\xa8\x06\x11\\\xbd;Q\xc0'
p3050
tp3051
Rp3052
ag7
(g11
S'\xa8\x06\x11\\\xbd;Q\xc0'
p3053
tp3054
Rp3055
ag7
(g11
S'\xa8\x06\x11\\\xbd;Q\xc0'
p3056
tp3057
Rp3058
ag7
(g11
S'\xa8\x06\x11\\\xbd;Q\xc0'
p3059
tp3060
Rp3061
ag7
(g11
S'H-3b\xbd;Q\xc0'
p3062
tp3063
Rp3064
ag7
(g11
S'G-3b\xbd;Q\xc0'
p3065
tp3066
Rp3067
ag7
(g11
S'G-3b\xbd;Q\xc0'
p3068
tp3069
Rp3070
ag7
(g11
S'G-3b\xbd;Q\xc0'
p3071
tp3072
Rp3073
ag7
(g11
S'G-3b\xbd;Q\xc0'
p3074
tp3075
Rp3076
ag7
(g11
S'G-3b\xbd;Q\xc0'
p3077
tp3078
Rp3079
ag7
(g11
S'G-3b\xbd;Q\xc0'
p3080
tp3081
Rp3082
ag7
(g11
S'G-3b\xbd;Q\xc0'
p3083
tp3084
Rp3085
ag7
(g11
S'G-3b\xbd;Q\xc0'
p3086
tp3087
Rp3088
ag7
(g11
S'G-3b\xbd;Q\xc0'
p3089
tp3090
Rp3091
ag7
(g11
S'G-3b\xbd;Q\xc0'
p3092
tp3093
Rp3094
ag7
(g11
S'G-3b\xbd;Q\xc0'
p3095
tp3096
Rp3097
ag7
(g11
S'G-3b\xbd;Q\xc0'
p3098
tp3099
Rp3100
ag7
(g11
S'G-3b\xbd;Q\xc0'
p3101
tp3102
Rp3103
ag7
(g11
S'G-3b\xbd;Q\xc0'
p3104
tp3105
Rp3106
ag7
(g11
S'G-3b\xbd;Q\xc0'
p3107
tp3108
Rp3109
ag7
(g11
S'G-3b\xbd;Q\xc0'
p3110
tp3111
Rp3112
ag7
(g11
S'G-3b\xbd;Q\xc0'
p3113
tp3114
Rp3115
ag7
(g11
S'G-3b\xbd;Q\xc0'
p3116
tp3117
Rp3118
ag7
(g11
S'G-3b\xbd;Q\xc0'
p3119
tp3120
Rp3121
ag7
(g11
S'G-3b\xbd;Q\xc0'
p3122
tp3123
Rp3124
ag7
(g11
S'\xe2\x03\xe1\xf3\xbf;Q\xc0'
p3125
tp3126
Rp3127
ag7
(g11
S'\xe3\x03\xe1\xf3\xbf;Q\xc0'
p3128
tp3129
Rp3130
ag7
(g11
S'\xe3\x03\xe1\xf3\xbf;Q\xc0'
p3131
tp3132
Rp3133
ag7
(g11
S'\xe3\x03\xe1\xf3\xbf;Q\xc0'
p3134
tp3135
Rp3136
ag7
(g11
S'\xe3\x03\xe1\xf3\xbf;Q\xc0'
p3137
tp3138
Rp3139
ag7
(g11
S'\xe3\x03\xe1\xf3\xbf;Q\xc0'
p3140
tp3141
Rp3142
ag7
(g11
S'\xe3\x03\xe1\xf3\xbf;Q\xc0'
p3143
tp3144
Rp3145
ag7
(g11
S'\xcf\xa5\xa7\xe3\xc7;Q\xc0'
p3146
tp3147
Rp3148
ag7
(g11
S'\x13\xf4\x93\xe3\xc7;Q\xc0'
p3149
tp3150
Rp3151
ag7
(g11
S'\x14\xf4\x93\xe3\xc7;Q\xc0'
p3152
tp3153
Rp3154
ag7
(g11
S'\xd8\xfd+\xde\xd7;Q\xc0'
p3155
tp3156
Rp3157
ag7
(g11
S'k\xd3\xc8\x80\xe3;Q\xc0'
p3158
tp3159
Rp3160
ag7
(g11
S'\xa1\x9c3\x81\xf5;Q\xc0'
p3161
tp3162
Rp3163
ag7
(g11
S'\xad$\xd4Q\x11<Q\xc0'
p3164
tp3165
Rp3166
ag7
(g11
S'\x1e\t\x9c\xeb;<Q\xc0'
p3167
tp3168
Rp3169
ag7
(g11
S'$5!8|<Q\xc0'
p3170
tp3171
Rp3172
ag7
(g11
S'\x9e\xb4\x8ao\xdb<Q\xc0'
p3173
tp3174
Rp3175
ag7
(g11
S'_\xb0\xddEe=Q\xc0'
p3176
tp3177
Rp3178
ag7
(g11
S"\xf6\xd3l\xbe'>Q\xc0"
p3179
tp3180
Rp3181
ag7
(g11
S'7\xe9\xcf\x872?Q\xc0'
p3182
tp3183
Rp3184
ag7
(g11
S'\xc7kM\xf6\x95@Q\xc0'
p3185
tp3186
Rp3187
ag7
(g11
S'\xc8\xcd\xc5\xe8aBQ\xc0'
p3188
tp3189
Rp3190
ag7
(g11
S'\x086\xd6\xfe\xa1DQ\xc0'
p3191
tp3192
Rp3193
ag7
(g11
S'\x88\xa4\xd8\xa7cGQ\xc0'
p3194
tp3195
Rp3196
ag7
(g11
S'\xcc\x8a1Z\xb3JQ\xc0'
p3197
tp3198
Rp3199
ag7
(g11
S'S\x93\x9b\r\x9cNQ\xc0'
p3200
tp3201
Rp3202
ag7
(g11
S'9\x99\xe0m+SQ\xc0'
p3203
tp3204
Rp3205
ag7
(g11
S'@\xab\x1c\xaftXQ\xc0'
p3206
tp3207
Rp3208
ag7
(g11
S'\xcc\t\xd0#|^Q\xc0'
p3209
tp3210
Rp3211
ag7
(g11
S'#\xbd\x9f!GeQ\xc0'
p3212
tp3213
Rp3214
ag7
(g11
S'\n\xda\x82=\xdelQ\xc0'
p3215
tp3216
Rp3217
ag7
(g11
S'\x96\xa9n\x02\\uQ\xc0'
p3218
tp3219
Rp3220
ag7
(g11
S'H\xf3\x7f\x82\xd9~Q\xc0'
p3221
tp3222
Rp3223
ag7
(g11
S'\xfc\x9bR.\x81\x89Q\xc0'
p3224
tp3225
Rp3226
ag7
(g11
S'v=\xc6\xacd\x95Q\xc0'
p3227
tp3228
Rp3229
ag7
(g11
S')%\xac\xbf\xcc\xa1Q\xc0'
p3230
tp3231
Rp3232
ag7
(g11
S'\x90f\xc1\xfaE\xafQ\xc0'
p3233
tp3234
Rp3235
ag7
(g11
S'\xe5{-\x17\x07\xbeQ\xc0'
p3236
tp3237
Rp3238
ag7
(g11
S'\xe5\xd3iC_\xcfQ\xc0'
p3239
tp3240
Rp3241
ag7
(g11
S'FO\xd8@^\xdfQ\xc0'
p3242
tp3243
Rp3244
ag7
(g11
S'\xdd\xfb9\x9a\xd2\xeeQ\xc0'
p3245
tp3246
Rp3247
ag7
(g11
S'p\xa0\x8b\x84\xe4\xfdQ\xc0'
p3248
tp3249
Rp3250
ag7
(g11
S'3J\xd1\x81\xde\x0bR\xc0'
p3251
tp3252
Rp3253
ag7
(g11
S'\xea\x1a_.[\x18R\xc0'
p3254
tp3255
Rp3256
ag7
(g11
S'\xdd\xe6(GX#R\xc0'
p3257
tp3258
Rp3259
ag7
(g11
S'\xb74\xc7||,R\xc0'
p3260
tp3261
Rp3262
ag7
(g11
S'0\xde\xee\x05\xee3R\xc0'
p3263
tp3264
Rp3265
ag7
(g11
S'f\xd5v$\xc89R\xc0'
p3266
tp3267
Rp3268
ag7
(g11
S'D,8\xeb7>R\xc0'
p3269
tp3270
Rp3271
ag7
(g11
S'\xacK\xaf\xf7\x80AR\xc0'
p3272
tp3273
Rp3274
ag7
(g11
S'\xfc\x11\x84\xc0\xe2CR\xc0'
p3275
tp3276
Rp3277
ag7
(g11
S'\x89\x12C\x99\x94ER\xc0'
p3278
tp3279
Rp3280
ag7
(g11
S'\x1a\x18.\x16\xc4FR\xc0'
p3281
tp3282
Rp3283
ag7
(g11
S'\x9c\xe9\xd7$\x95GR\xc0'
p3284
tp3285
Rp3286
ag7
(g11
S'\x9a\xeb\t\x1f#HR\xc0'
p3287
tp3288
Rp3289
ag7
(g11
S'\x05\x88"D\x82HR\xc0'
p3290
tp3291
Rp3292
ag7
(g11
S'[\xc8\xe9:\xc1HR\xc0'
p3293
tp3294
Rp3295
ag7
(g11
S'\x7f\xce1j\xeaHR\xc0'
p3296
tp3297
Rp3298
ag7
(g11
S'j\x8fD\x15\x05IR\xc0'
p3299
tp3300
Rp3301
ag7
(g11
S'b[ :\x16IR\xc0'
p3302
tp3303
Rp3304
ag7
(g11
S'\xa9J\xcc8!IR\xc0'
p3305
tp3306
Rp3307
ag7
(g11
S'\xd2s\xf1M(IR\xc0'
p3308
tp3309
Rp3310
ag7
(g11
S'\x8a\x8c}\xec,IR\xc0'
p3311
tp3312
Rp3313
ag7
(g11
S'\x8d"$\xff/IR\xc0'
p3314
tp3315
Rp3316
ag7
(g11
S'\xa6\xff\xb2\x172IR\xc0'
p3317
tp3318
Rp3319
ag7
(g11
S'M\xb3\xf2\x8f3IR\xc0'
p3320
tp3321
Rp3322
ag7
(g11
S'k\xb0I\x9f4IR\xc0'
p3323
tp3324
Rp3325
ag7
(g11
S'\xe5}Kh5IR\xc0'
p3326
tp3327
Rp3328
ag7
(g11
S';\x93\x80\xdc8IR\xc0'
p3329
tp3330
Rp3331
ag7
(g11
S';\x93\x80\xdc8IR\xc0'
p3332
tp3333
Rp3334
ag7
(g11
S';\x93\x80\xdc8IR\xc0'
p3335
tp3336
Rp3337
ag7
(g11
S';\x93\x80\xdc8IR\xc0'
p3338
tp3339
Rp3340
ag7
(g11
S';\x93\x80\xdc8IR\xc0'
p3341
tp3342
Rp3343
ag7
(g11
S';\x93\x80\xdc8IR\xc0'
p3344
tp3345
Rp3346
ag7
(g11
S';\x93\x80\xdc8IR\xc0'
p3347
tp3348
Rp3349
ag7
(g11
S';\x93\x80\xdc8IR\xc0'
p3350
tp3351
Rp3352
ag7
(g11
S';\x93\x80\xdc8IR\xc0'
p3353
tp3354
Rp3355
ag7
(g11
S';\x93\x80\xdc8IR\xc0'
p3356
tp3357
Rp3358
ag7
(g11
S';\x93\x80\xdc8IR\xc0'
p3359
tp3360
Rp3361
ag7
(g11
S';\x93\x80\xdc8IR\xc0'
p3362
tp3363
Rp3364
ag7
(g11
S';\x93\x80\xdc8IR\xc0'
p3365
tp3366
Rp3367
ag7
(g11
S';\x93\x80\xdc8IR\xc0'
p3368
tp3369
Rp3370
ag7
(g11
S';\x93\x80\xdc8IR\xc0'
p3371
tp3372
Rp3373
ag7
(g11
S';\x93\x80\xdc8IR\xc0'
p3374
tp3375
Rp3376
ag7
(g11
S';\x93\x80\xdc8IR\xc0'
p3377
tp3378
Rp3379
ag7
(g11
S';\x93\x80\xdc8IR\xc0'
p3380
tp3381
Rp3382
ag7
(g11
S';\x93\x80\xdc8IR\xc0'
p3383
tp3384
Rp3385
ag7
(g11
S';\x93\x80\xdc8IR\xc0'
p3386
tp3387
Rp3388
ag7
(g11
S';\x93\x80\xdc8IR\xc0'
p3389
tp3390
Rp3391
ag7
(g11
S';\x93\x80\xdc8IR\xc0'
p3392
tp3393
Rp3394
ag7
(g11
S';\x93\x80\xdc8IR\xc0'
p3395
tp3396
Rp3397
ag7
(g11
S'\xf9\xff/\xdc8IR\xc0'
p3398
tp3399
Rp3400
ag7
(g11
S'\xf9\xff/\xdc8IR\xc0'
p3401
tp3402
Rp3403
ag7
(g11
S'\xfb\xff/\xdc8IR\xc0'
p3404
tp3405
Rp3406
ag7
(g11
S'\xfb\xff/\xdc8IR\xc0'
p3407
tp3408
Rp3409
ag7
(g11
S'\xfb\xff/\xdc8IR\xc0'
p3410
tp3411
Rp3412
ag7
(g11
S'\xfb\xff/\xdc8IR\xc0'
p3413
tp3414
Rp3415
ag7
(g11
S'\xfb\xff/\xdc8IR\xc0'
p3416
tp3417
Rp3418
ag7
(g11
S'\xfb\xff/\xdc8IR\xc0'
p3419
tp3420
Rp3421
ag7
(g11
S'\xfb\xff/\xdc8IR\xc0'
p3422
tp3423
Rp3424
ag7
(g11
S'\xfb\xff/\xdc8IR\xc0'
p3425
tp3426
Rp3427
ag7
(g11
S'\xfb\xff/\xdc8IR\xc0'
p3428
tp3429
Rp3430
ag7
(g11
S'\xfb\xff/\xdc8IR\xc0'
p3431
tp3432
Rp3433
ag7
(g11
S'\xfb\xff/\xdc8IR\xc0'
p3434
tp3435
Rp3436
ag7
(g11
S'\xfb\xff/\xdc8IR\xc0'
p3437
tp3438
Rp3439
ag7
(g11
S'\xfb\xff/\xdc8IR\xc0'
p3440
tp3441
Rp3442
ag7
(g11
S'\xfb\xff/\xdc8IR\xc0'
p3443
tp3444
Rp3445
ag7
(g11
S'\xfb\xff/\xdc8IR\xc0'
p3446
tp3447
Rp3448
ag7
(g11
S'\xfb\xff/\xdc8IR\xc0'
p3449
tp3450
Rp3451
ag7
(g11
S'\xfb\xff/\xdc8IR\xc0'
p3452
tp3453
Rp3454
ag7
(g11
S'\xfb\xff/\xdc8IR\xc0'
p3455
tp3456
Rp3457
ag7
(g11
S'\xfb\xff/\xdc8IR\xc0'
p3458
tp3459
Rp3460
ag7
(g11
S'\xfb\xff/\xdc8IR\xc0'
p3461
tp3462
Rp3463
ag7
(g11
S'\xd7Rjx7IR\xc0'
p3464
tp3465
Rp3466
ag7
(g11
S'\xd7Rjx7IR\xc0'
p3467
tp3468
Rp3469
ag7
(g11
S'\xd7Rjx7IR\xc0'
p3470
tp3471
Rp3472
ag7
(g11
S'\xd7Rjx7IR\xc0'
p3473
tp3474
Rp3475
ag7
(g11
S'\xd7Rjx7IR\xc0'
p3476
tp3477
Rp3478
ag7
(g11
S'\xd7Rjx7IR\xc0'
p3479
tp3480
Rp3481
ag7
(g11
S'\xd7Rjx7IR\xc0'
p3482
tp3483
Rp3484
ag7
(g11
S'\xd7Rjx7IR\xc0'
p3485
tp3486
Rp3487
ag7
(g11
S'\xd7Rjx7IR\xc0'
p3488
tp3489
Rp3490
ag7
(g11
S'\xd7Rjx7IR\xc0'
p3491
tp3492
Rp3493
ag7
(g11
S'\xd7Rjx7IR\xc0'
p3494
tp3495
Rp3496
ag7
(g11
S'\xccH\xaci1IR\xc0'
p3497
tp3498
Rp3499
ag7
(g11
S'\xccH\xaci1IR\xc0'
p3500
tp3501
Rp3502
ag7
(g11
S'\xcfH\xaci1IR\xc0'
p3503
tp3504
Rp3505
ag7
(g11
S'2n=\x80)IR\xc0'
p3506
tp3507
Rp3508
ag7
(g11
S'2n=\x80)IR\xc0'
p3509
tp3510
Rp3511
ag7
(g11
S'\xae\xe1\x0b>\x1dIR\xc0'
p3512
tp3513
Rp3514
ag7
(g11
S'\xe7uM\xbb\x12IR\xc0'
p3515
tp3516
Rp3517
ag7
(g11
S'xQvg\x03IR\xc0'
p3518
tp3519
Rp3520
ag7
(g11
S'\xe844\x11\xedHR\xc0'
p3521
tp3522
Rp3523
ag7
(g11
S'\xeb{\xc7\xa5\xccHR\xc0'
p3524
tp3525
Rp3526
ag7
(g11
S'\xc9\x04\xb1\xe4\x9dHR\xc0'
p3527
tp3528
Rp3529
ag7
(g11
S'`~d\xfdZHR\xc0'
p3530
tp3531
Rp3532
ag7
(g11
S'\x8e\xb1\xfb\x13\xfcGR\xc0'
p3533
tp3534
Rp3535
ag7
(g11
S'\x86!\xf8\xaavGR\xc0'
p3536
tp3537
Rp3538
ag7
(g11
S'\x045\xc5\xf4\xbcFR\xc0'
p3539
tp3540
Rp3541
ag7
(g11
S';Y\x97\x14\xbdER\xc0'
p3542
tp3543
Rp3544
ag7
(g11
S'\xdes\xc2``DR\xc0'
p3545
tp3546
Rp3547
ag7
(g11
S'e\xc2S\xc5\x8aBR\xc0'
p3548
tp3549
Rp3550
ag7
(g11
S'\xb9\xcbhv\x1a@R\xc0'
p3551
tp3552
Rp3553
ag7
(g11
S'\x00\x8bx.\xe8<R\xc0'
p3554
tp3555
Rp3556
ag7
(g11
S'\xa4\x01\xa69\xc88R\xc0'
p3557
tp3558
Rp3559
ag7
(g11
S'\xb7\xa6\xe1}\x8c3R\xc0'
p3560
tp3561
Rp3562
ag7
(g11
S'\xd6\xa9\x89\x83\x19-R\xc0'
p3563
tp3564
Rp3565
ag7
(g11
S'\x84\x1f\xe2\xb4]%R\xc0'
p3566
tp3567
Rp3568
ag7
(g11
S'}\x8e\x83\t2\x1cR\xc0'
p3569
tp3570
Rp3571
ag7
(g11
S'\xbc\xdcF\xb2\xb8\x11R\xc0'
p3572
tp3573
Rp3574
ag7
(g11
S'N\xed\x06\x14\x08\x06R\xc0'
p3575
tp3576
Rp3577
ag7
(g11
S'\x19\xf4\xb5;8\xf9Q\xc0'
p3578
tp3579
Rp3580
ag7
(g11
S'2\x99$\x94w\xebQ\xc0'
p3581
tp3582
Rp3583
ag7
(g11
S'(\xd9T\xe0\x93\xddQ\xc0'
p3584
tp3585
Rp3586
ag7
(g11
S'\x96\xc6\xcct\xd2\xceQ\xc0'
p3587
tp3588
Rp3589
ag7
(g11
S'\xe8\xd1A\xfba\xbeQ\xc0'
p3590
tp3591
Rp3592
ag7
(g11
S'r\xde\x06V\x84\xb0Q\xc0'
p3593
tp3594
Rp3595
ag7
(g11
S'\xaf\x8b\x96%\x8f\xa3Q\xc0'
p3596
tp3597
Rp3598
ag7
(g11
S'\x9d\xb1\x8cz\x93\x97Q\xc0'
p3599
tp3600
Rp3601
ag7
(g11
S'\x8c\x11>\x95\xad\x8bQ\xc0'
p3602
tp3603
Rp3604
ag7
(g11
S'Kq\xe7{\x9f\x80Q\xc0'
p3605
tp3606
Rp3607
ag7
(g11
S'\xb3_\x0f9\xa8vQ\xc0'
p3608
tp3609
Rp3610
ag7
(g11
S'\x0e\xe5O\x92xmQ\xc0'
p3611
tp3612
Rp3613
ag7
(g11
S'\xfa\xcd<\xdf\x05eQ\xc0'
p3614
tp3615
Rp3616
ag7
(g11
S'\x1b\xe1`\xf3+]Q\xc0'
p3617
tp3618
Rp3619
ag7
(g11
S'\xd7^\xcb\xb5\xebUQ\xc0'
p3620
tp3621
Rp3622
ag7
(g11
S'\xe2F\r\xfdOOQ\xc0'
p3623
tp3624
Rp3625
ag7
(g11
S'R\xd0\xfb^QIQ\xc0'
p3626
tp3627
Rp3628
ag7
(g11
S'\xea+\x94\x8f\xd7CQ\xc0'
p3629
tp3630
Rp3631
ag7
(g11
S'\xd3\xdb(\xce\xc9>Q\xc0'
p3632
tp3633
Rp3634
ag7
(g11
S'\x8d\x82``\xbd;Q\xc0'
p3635
tp3636
Rp3637
ag7
(g11
S'\x86\xab\x98_\xbd;Q\xc0'
p3638
tp3639
Rp3640
ag7
(g11
S'C}\x81_\xbd;Q\xc0'
p3641
tp3642
Rp3643
ag7
(g11
S'@\xb8l_\xbd;Q\xc0'
p3644
tp3645
Rp3646
ag7
(g11
S'\x97\x84Z_\xbd;Q\xc0'
p3647
tp3648
Rp3649
ag7
(g11
S'q\xfdJ_\xbd;Q\xc0'
p3650
tp3651
Rp3652
ag7
(g11
S'\\5>_\xbd;Q\xc0'
p3653
tp3654
Rp3655
ag7
(g11
S'\xbd44_\xbd;Q\xc0'
p3656
tp3657
Rp3658
ag7
(g11
S'\xe7\xf8,_\xbd;Q\xc0'
p3659
tp3660
Rp3661
ag7
(g11
S'ls(_\xbd;Q\xc0'
p3662
tp3663
Rp3664
ag7
(g11
S'\x1b\x8a&_\xbd;Q\xc0'
p3665
tp3666
Rp3667
ag7
(g11
S"t\x17'_\xbd;Q\xc0"
p3668
tp3669
Rp3670
ag7
(g11
S'\xce\xeb)_\xbd;Q\xc0'
p3671
tp3672
Rp3673
ag7
(g11
S'\xdc\xce._\xbd;Q\xc0'
p3674
tp3675
Rp3676
ag7
(g11
S'\x9d\x815_\xbd;Q\xc0'
p3677
tp3678
Rp3679
ag7
(g11
S'\xae\xc0=_\xbd;Q\xc0'
p3680
tp3681
Rp3682
ag7
(g11
S'rFG_\xbd;Q\xc0'
p3683
tp3684
Rp3685
ag7
(g11
S'c\xcdQ_\xbd;Q\xc0'
p3686
tp3687
Rp3688
ag7
(g11
S'\xfe\x11]_\xbd;Q\xc0'
p3689
tp3690
Rp3691
ag7
(g11
S'{\xd4h_\xbd;Q\xc0'
p3692
tp3693
Rp3694
ag7
(g11
S'\x16\xdat_\xbd;Q\xc0'
p3695
tp3696
Rp3697
ag7
(g11
S'\x889F_\xbd;Q\xc0'
p3698
tp3699
Rp3700
ag7
(g11
S'\xd9\x19Na\xbd;Q\xc0'
p3701
tp3702
Rp3703
ag7
(g11
S'\x02&\x99`\xbd;Q\xc0'
p3704
tp3705
Rp3706
ag7
(g11
S'\xf7\xd8n_\xbd;Q\xc0'
p3707
tp3708
Rp3709
ag7
(g11
S'\xa9\x10\x90`\xbd;Q\xc0'
p3710
tp3711
Rp3712
ag7
(g11
S'\x85\x9c{`\xbd;Q\xc0'
p3713
tp3714
Rp3715
ag7
(g11
S'\x8c\x82``\xbd;Q\xc0'
p3716
tp3717
Rp3718
ag7
(g11
S'\x8e\x82``\xbd;Q\xc0'
p3719
tp3720
Rp3721
ag7
(g11
S'\xfa2\xbb`\xbd;Q\xc0'
p3722
tp3723
Rp3724
ag7
(g11
S'\xd1\xcb\xc8_\xbd;Q\xc0'
p3725
tp3726
Rp3727
ag7
(g11
S'\xc0\x93\xd6`\xbd;Q\xc0'
p3728
tp3729
Rp3730
ag7
(g11
S'\x01\x84\xdc^\xbd;Q\xc0'
p3731
tp3732
Rp3733
ag7
(g11
S'$\xffi_\xbd;Q\xc0'
p3734
tp3735
Rp3736
ag7
(g11
S'\xca\x95\xde_\xbd;Q\xc0'
p3737
tp3738
Rp3739
ag7
(g11
S'\x0e\x8c?`\xbd;Q\xc0'
p3740
tp3741
Rp3742
ag7
(g11
S'4\xf8{`\xbd;Q\xc0'
p3743
tp3744
Rp3745
ag7
(g11
S'S\xa5\xa5`\xbd;Q\xc0'
p3746
tp3747
Rp3748
ag7
(g11
S'82\xc8`\xbd;Q\xc0'
p3749
tp3750
Rp3751
ag7
(g11
S'\x83|\xe4`\xbd;Q\xc0'
p3752
tp3753
Rp3754
ag7
(g11
S'J\x1f\xfb`\xbd;Q\xc0'
p3755
tp3756
Rp3757
ag7
(g11
S'\xdf\xd7\xcc_\xbd;Q\xc0'
p3758
tp3759
Rp3760
ag7
(g11
S'\xd0\x8b\x17a\xbd;Q\xc0'
p3761
tp3762
Rp3763
ag7
(g11
S'\xa1D\x1c_\xbd;Q\xc0'
p3764
tp3765
Rp3766
ag7
(g11
S'\x8e\x82``\xbd;Q\xc0'
p3767
tp3768
Rp3769
ag7
(g11
S'\x8c\x82``\xbd;Q\xc0'
p3770
tp3771
Rp3772
ag7
(g11
S'\x8e\x82``\xbd;Q\xc0'
p3773
tp3774
Rp3775
ag7
(g11
S'\x8e\x82``\xbd;Q\xc0'
p3776
tp3777
Rp3778
ag7
(g11
S'\x8c\x82``\xbd;Q\xc0'
p3779
tp3780
Rp3781
ag7
(g11
S'\x8e\x82``\xbd;Q\xc0'
p3782
tp3783
Rp3784
ag7
(g11
S'\x8e\x82``\xbd;Q\xc0'
p3785
tp3786
Rp3787
ag7
(g11
S'\x8c\x82``\xbd;Q\xc0'
p3788
tp3789
Rp3790
ag7
(g11
S'\x8e\x82``\xbd;Q\xc0'
p3791
tp3792
Rp3793
ag7
(g11
S'\x8e\x82``\xbd;Q\xc0'
p3794
tp3795
Rp3796
ag7
(g11
S'\x8c\x82``\xbd;Q\xc0'
p3797
tp3798
Rp3799
ag7
(g11
S'\x8e\x82``\xbd;Q\xc0'
p3800
tp3801
Rp3802
ag7
(g11
S'\x8e\x82``\xbd;Q\xc0'
p3803
tp3804
Rp3805
ag7
(g11
S'\x8c\x82``\xbd;Q\xc0'
p3806
tp3807
Rp3808
ag7
(g11
S'\x8e\x82``\xbd;Q\xc0'
p3809
tp3810
Rp3811
ag7
(g11
S'\x8e\x82``\xbd;Q\xc0'
p3812
tp3813
Rp3814
ag7
(g11
S'\x8c\x82``\xbd;Q\xc0'
p3815
tp3816
Rp3817
ag7
(g11
S'\x8e\x82``\xbd;Q\xc0'
p3818
tp3819
Rp3820
ag7
(g11
S'\x8e\x82``\xbd;Q\xc0'
p3821
tp3822
Rp3823
ag7
(g11
S'\x8c\x82``\xbd;Q\xc0'
p3824
tp3825
Rp3826
ag7
(g11
S'\x8e\x82``\xbd;Q\xc0'
p3827
tp3828
Rp3829
ag7
(g11
S'\x8e\x82``\xbd;Q\xc0'
p3830
tp3831
Rp3832
ag7
(g11
S'\x8c\x82``\xbd;Q\xc0'
p3833
tp3834
Rp3835
ag7
(g11
S'\x8e\x82``\xbd;Q\xc0'
p3836
tp3837
Rp3838
ag7
(g11
S'\x8e\x82``\xbd;Q\xc0'
p3839
tp3840
Rp3841
ag7
(g11
S'\x8c\x82``\xbd;Q\xc0'
p3842
tp3843
Rp3844
ag7
(g11
S'\x8e\x82``\xbd;Q\xc0'
p3845
tp3846
Rp3847
ag7
(g11
S'\x8e\x82``\xbd;Q\xc0'
p3848
tp3849
Rp3850
ag7
(g11
S'\x8c\x82``\xbd;Q\xc0'
p3851
tp3852
Rp3853
ag7
(g11
S'\x8e\x82``\xbd;Q\xc0'
p3854
tp3855
Rp3856
ag7
(g11
S'\x8e\x82``\xbd;Q\xc0'
p3857
tp3858
Rp3859
ag7
(g11
S'\x8c\x82``\xbd;Q\xc0'
p3860
tp3861
Rp3862
ag7
(g11
S'\x8e\x82``\xbd;Q\xc0'
p3863
tp3864
Rp3865
ag7
(g11
S'\x8e\x82``\xbd;Q\xc0'
p3866
tp3867
Rp3868
ag7
(g11
S'\x8c\x82``\xbd;Q\xc0'
p3869
tp3870
Rp3871
ag7
(g11
S'\x8e\x82``\xbd;Q\xc0'
p3872
tp3873
Rp3874
ag7
(g11
S'\x8e\x82``\xbd;Q\xc0'
p3875
tp3876
Rp3877
ag7
(g11
S'\x8c\x82``\xbd;Q\xc0'
p3878
tp3879
Rp3880
ag7
(g11
S'\x8e\x82``\xbd;Q\xc0'
p3881
tp3882
Rp3883
ag7
(g11
S'\x8e\x82``\xbd;Q\xc0'
p3884
tp3885
Rp3886
ag7
(g11
S'\x8c\x82``\xbd;Q\xc0'
p3887
tp3888
Rp3889
ag7
(g11
S'\x8e\x82``\xbd;Q\xc0'
p3890
tp3891
Rp3892
ag7
(g11
S'\x8e\x82``\xbd;Q\xc0'
p3893
tp3894
Rp3895
ag7
(g11
S'\x8c\x82``\xbd;Q\xc0'
p3896
tp3897
Rp3898
ag7
(g11
S'\x8e\x82``\xbd;Q\xc0'
p3899
tp3900
Rp3901
ag7
(g11
S'\x8e\x82``\xbd;Q\xc0'
p3902
tp3903
Rp3904
ag7
(g11
S'\x8c\x82``\xbd;Q\xc0'
p3905
tp3906
Rp3907
ag7
(g11
S'\x8e\x82``\xbd;Q\xc0'
p3908
tp3909
Rp3910
ag7
(g11
S'\x8e\x82``\xbd;Q\xc0'
p3911
tp3912
Rp3913
ag7
(g11
S'\x8c\x82``\xbd;Q\xc0'
p3914
tp3915
Rp3916
ag7
(g11
S'\x8e\x82``\xbd;Q\xc0'
p3917
tp3918
Rp3919
ag7
(g11
S'\x8e\x82``\xbd;Q\xc0'
p3920
tp3921
Rp3922
ag7
(g11
S'\x8c\x82``\xbd;Q\xc0'
p3923
tp3924
Rp3925
ag7
(g11
S'\x8e\x82``\xbd;Q\xc0'
p3926
tp3927
Rp3928
ag7
(g11
S'\x8e\x82``\xbd;Q\xc0'
p3929
tp3930
Rp3931
ag7
(g11
S'\x8c\x82``\xbd;Q\xc0'
p3932
tp3933
Rp3934
ag7
(g11
S'\x8e\x82``\xbd;Q\xc0'
p3935
tp3936
Rp3937
ag7
(g11
S'\x8e\x82``\xbd;Q\xc0'
p3938
tp3939
Rp3940
ag7
(g11
S'\x8c\x82``\xbd;Q\xc0'
p3941
tp3942
Rp3943
ag7
(g11
S'\x8e\x82``\xbd;Q\xc0'
p3944
tp3945
Rp3946
ag7
(g11
S'\x8e\x82``\xbd;Q\xc0'
p3947
tp3948
Rp3949
ag7
(g11
S'\x8c\x82``\xbd;Q\xc0'
p3950
tp3951
Rp3952
ag7
(g11
S'\x8e\x82``\xbd;Q\xc0'
p3953
tp3954
Rp3955
ag7
(g11
S'\x8e\x82``\xbd;Q\xc0'
p3956
tp3957
Rp3958
asS'theta'
p3959
(lp3960
I0
aF0.0
aF0.0
aF0.0
aF0.0
aF0.0
aF0.0
aF0.0
aF0.0
aF0.0
aF0.0
aF0.0
aF0.0
aF0.0
aF0.0
aF0.0
aF0.0
aF0.0
aF0.0
aF0.0
aF0.0
aF0.0
aF0.0
aF0.0
aF0.0
aF0.0
aF0.0
aF0.0
aF0.0
aF0.0
aF0.0
aF0.0
aF0.0
aF0.0
aF0.0
aF0.0
aF0.0
aF0.0
aF0.0
aF0.0
aF0.0
aF0.0
aF0.0
aF0.0
aF0.0
aF0.0
aF0.0
aF0.0
aF0.0
aF0.0
aF0.0
aF0.0
aF0.0
aF0.0
aF0.0
aF0.0
aF0.0
aF0.0
aF0.0
aF0.0
aF0.0
aF0.0
aF0.0
aF0.0
aF0.0
aF0.0
aF0.0
aF0.0
aF0.0
aF0.0
aF0.0
aF0.0
aF0.0
aF0.0
aF0.0
aF0.0
aF0.0
aF0.0
aF0.0
aF0.0
aF0.0
aF0.0
aF0.0
aF0.0
aF0.0
aF0.0
aF0.0
aF0.0
aF0.0
aF0.0
aF0.0
aF0.0
aF0.0
aF0.0
aF0.0
aF0.0
aF0.0
aF0.0
aF0.0
aF0.0
aF0.0
aF-1.1992145365571688e-05
aF-1.1992145276181665e-05
aF-1.1992145276181665e-05
aF-1.1992145276181665e-05
aF-1.1992145276181665e-05
aF-1.1992145276181665e-05
aF-1.1992145276181665e-05
aF-1.1992145276181665e-05
aF-1.1992145276181665e-05
aF-1.1992145276181665e-05
aF-1.1992145276181665e-05
aF-1.1992145276181665e-05
aF-1.1992145276181665e-05
aF-1.1992145276181665e-05
aF-1.1992145276181665e-05
aF-1.1992145276181665e-05
aF-1.1992145276181665e-05
aF-1.1992145276181665e-05
aF-1.1992145276181665e-05
aF-1.1992145276181665e-05
aF-1.1992145276181665e-05
aF-0.001297870540863196
aF-0.0012978705409525764
aF-0.0012978705409525764
aF-0.0012978705409525764
aF-0.0012978705409525764
aF-0.0012978705409525764
aF-0.0012978705409525764
aF-0.005269995570666654
aF-0.005269845181043901
aF-0.005269845181133251
aF-0.013265337506691503
aF-0.019085981010829842
aF-0.028089234612070517
aF-0.04199507140734563
aF-0.06328020944800744
aF-0.09537765087718379
aF-0.14284489385766239
aF-0.21142481716682904
aF-0.30791367430021743
aF-0.4397761639498057
aF-0.6145545111377386
aF-0.8392314676553624
aF-1.1183147213180957
aF-1.456743393641946
aF-1.8584694828076522
aF-2.3261943873735116
aF-2.863311069563259
aF-3.475055703258307
aF-4.159295652107412
aF-4.9140512496526725
aF-5.73846207111777
aF-6.638711289478939
aF-7.619393709116437
aF-8.690919052271752
aF-9.852727625856039
aF-11.030411990192853
aF-12.272709984586937
aF-13.593170950501827
aF-15.097020317699595
aF-16.441863144970988
aF-17.70620580171383
aF-18.908646041490428
aF-19.998932171219753
aF-20.954076944745225
aF-21.78066265194363
aF-22.45882629491949
aF-23.004925387542446
aF-23.430541167045778
aF-23.751084694040657
aF-23.987286942027325
aF-24.157930581446774
aF-24.279030371511837
aF-24.36359147674539
aF-24.421769047084982
aF-24.461245768953944
aF-24.487685639670744
aF-24.505176072371086
aF-24.516613684481484
aF-24.524018653419038
aF-24.528778517002102
aF-24.53183091577168
aF-24.533797113708165
aF-24.535079447088442
aF-24.535932461487285
aF-24.5365142775972
aF-24.536922259087454
aF-24.537216481773253
aF-24.537434439365256
aF-24.53839320051707
aF-24.53839320051707
aF-24.53839320051707
aF-24.53839320051707
aF-24.53839320051707
aF-24.53839320051707
aF-24.53839320051707
aF-24.53839320051707
aF-24.53839320051707
aF-24.53839320051707
aF-24.53839320051707
aF-24.53839320051707
aF-24.53839320051707
aF-24.53839320051707
aF-24.53839320051707
aF-24.53839320051707
aF-24.53839320051707
aF-24.53839320051707
aF-24.53839320051707
aF-24.53839320051707
aF-24.53839320051707
aF-24.53839320051707
aF-24.53839320051707
aF-24.538392859234435
aF-24.538392859234463
aF-24.538392859234524
aF-24.538392859234524
aF-24.538392859234524
aF-24.538392859234524
aF-24.538392859234524
aF-24.538392859234524
aF-24.538392859234524
aF-24.538392859234524
aF-24.538392859234524
aF-24.538392859234524
aF-24.538392859234524
aF-24.538392859234524
aF-24.538392859234524
aF-24.538392859234524
aF-24.538392859234524
aF-24.538392859234524
aF-24.538392859234524
aF-24.538392859234524
aF-24.538392859234524
aF-24.538392859234524
aF-24.53800709129711
aF-24.53800709129711
aF-24.53800709129711
aF-24.53800709129711
aF-24.53800709129711
aF-24.53800709129711
aF-24.53800709129711
aF-24.53800709129711
aF-24.53800709129711
aF-24.53800709129711
aF-24.53800709129711
aF-24.536325573102026
aF-24.536325573101966
aF-24.536325573102058
aF-24.53412925927615
aF-24.53412925927615
aF-24.5307261390488
aF-24.527808082565475
aF-24.52355249376901
aF-24.517350212945296
aF-24.508347096759106
aF-24.495360700162394
aF-24.476772585810604
aF-24.45039252687211
aF-24.413291663796002
aF-24.36160612387522
aF-24.290317032168122
aF-24.193022921446943
aF-24.06173265683287
aF-23.886723349721485
aF-23.656520440670054
aF-23.3580631958411
aF-22.97710418784259
aF-22.50403194676546
aF-21.931333511116765
aF-21.24432159188464
aF-20.44873799139393
aF-19.54635370999165
aF-18.538860348624564
aF-17.434458920754544
aF-16.293214962259007
aF-15.050082827689334
aF-13.624463008983803
aF-12.385564414107673
aF-11.194726007578618
aF-10.062413378316297
aF-8.905889074062316
aF-7.799828586772851
aF-6.774352649087821
aF-5.803124662025156
aF-4.886023938432984
aF-4.01143893101588
aF-3.1831053634806503
aF-2.4095707535579165
aF-1.691344659618303
aF-1.0205366267072322
aF-0.38808393050285933
aF-8.427942330031759e-06
aF-6.901649766812039e-06
aF-6.724605313998073e-06
aF-6.565976187516986e-06
aF-6.4269583797753176e-06
aF-6.308362914504706e-06
aF-6.210742660424671e-06
aF-6.134348277985749e-06
aF-6.079100102822386e-06
aF-6.044567652114631e-06
aF-6.029969118352516e-06
aF-6.034186209036092e-06
aF-6.055796729975422e-06
aF-6.093120976761172e-06
aF-6.144279372359686e-06
aF-6.207261584262675e-06
aF-6.279990480000139e-06
aF-6.360392291763603e-06
aF-6.4464523756747835e-06
aF-6.536267968011515e-06
aF-6.6280862639461374e-06
aF-6.271967776803152e-06
aF-1.0242561267373015e-05
aF-8.860522959980713e-06
aF-6.582227260869746e-06
aF-8.79114800060577e-06
aF-8.63493159638364e-06
aF-8.427942297640953e-06
aF-8.427942416761802e-06
aF-9.120587568687409e-06
aF-7.269216609744269e-06
aF-9.329689219012564e-06
aF-5.464606615293572e-06
aF-6.545178422229268e-06
aF-7.435631524672763e-06
aF-8.176185758956439e-06
aF-8.637666865691086e-06
aF-8.955972423105068e-06
aF-9.219853354530091e-06
aF-9.435921913827914e-06
aF-9.608804859024067e-06
aF-7.30012668560842e-06
aF-9.825894744040472e-06
aF-5.95152065994265e-06
aF-8.42794240798899e-06
aF-8.427942293711625e-06
aF-8.427942406819805e-06
aF-8.42794240798899e-06
aF-8.427942293711625e-06
aF-8.427942406819805e-06
aF-8.42794240798899e-06
aF-8.427942293711625e-06
aF-8.427942406819805e-06
aF-8.42794240798899e-06
aF-8.427942293711625e-06
aF-8.427942406819805e-06
aF-8.42794240798899e-06
aF-8.427942293711625e-06
aF-8.427942406819805e-06
aF-8.42794240798899e-06
aF-8.427942293711625e-06
aF-8.427942406819805e-06
aF-8.42794240798899e-06
aF-8.427942293711625e-06
aF-8.427942406819805e-06
aF-8.42794240798899e-06
aF-8.427942293711625e-06
aF-8.427942406819805e-06
aF-8.42794240798899e-06
aF-8.427942293711625e-06
aF-8.427942406819805e-06
aF-8.42794240798899e-06
aF-8.427942293711625e-06
aF-8.427942406819805e-06
aF-8.42794240798899e-06
aF-8.427942293711625e-06
aF-8.427942406819805e-06
aF-8.42794240798899e-06
aF-8.427942293711625e-06
aF-8.427942406819805e-06
aF-8.42794240798899e-06
aF-8.427942293711625e-06
aF-8.427942406819805e-06
aF-8.42794240798899e-06
aF-8.427942293711625e-06
aF-8.427942406819805e-06
aF-8.42794240798899e-06
aF-8.427942293711625e-06
aF-8.427942406819805e-06
aF-8.42794240798899e-06
aF-8.427942293711625e-06
aF-8.427942406819805e-06
aF-8.42794240798899e-06
aF-8.427942293711625e-06
aF-8.427942406819805e-06
aF-8.42794240798899e-06
aF-8.427942293711625e-06
aF-8.427942406819805e-06
aF-8.42794240798899e-06
aF-8.427942293711625e-06
aF-8.427942406819805e-06
aF-8.42794240798899e-06
aF-8.427942293711625e-06
aF-8.427942406819805e-06
aF-8.42794240798899e-06
aF-8.427942293711625e-06
aF-8.427942406819805e-06
aF-8.42794240798899e-06
asS'k'
p3961
g7
(g11
S'\xf0\xbf\n\x19\x03\x00|@'
p3962
tp3963
Rp3964
sS'sigma'
p3965
(lp3966
F400000000.0
aF400000000.00000006
aF400000000.00000006
aF400000000.00000006
aF400000000.00000006
aF400000000.00000006
aF400000000.00000006
aF400000000.00000006
aF400000000.00000006
aF400000000.00000006
aF400000000.00000006
aF400000000.00000006
aF400000000.00000006
aF400000000.00000006
aF400000000.00000006
aF400000000.00000006
aF400000000.00000006
aF400000000.00000006
aF400000000.00000006
aF400000000.00000006
aF400000000.00000006
aF400000000.00000006
aF400000000.00000006
aF400000000.00000006
aF400000000.00000006
aF400000000.00000006
aF400000000.00000006
aF400000000.00000006
aF400000000.00000006
aF400000000.00000006
aF400000000.00000006
aF400000000.00000006
aF400000000.00000006
aF400000000.00000006
aF400000000.00000006
aF400000000.00000006
aF400000000.00000006
aF400000000.00000006
aF400000000.00000006
aF400000000.00000006
aF400000000.00000006
aF400000000.00000006
aF400000000.00000006
aF400000000.00000006
aF400000000.00000006
aF400000000.00000006
aF400000000.00000006
aF400000000.00000006
aF400000000.00000006
aF400000000.00000006
aF400000000.00000006
aF400000000.00000006
aF400000000.00000006
aF400000000.00000006
aF400000000.00000006
aF400000000.00000006
aF400000000.00000006
aF400000000.00000006
aF400000000.00000006
aF400000000.00000006
aF400000000.00000006
aF400000000.00000006
aF400000000.00000006
aF400000000.00000006
aF400000000.00000006
aF400000000.00000006
aF400000000.00000006
aF400000000.00000006
aF400000000.00000006
aF400000000.00000006
aF400000000.00000006
aF400000000.00000006
aF400000000.00000006
aF400000000.00000006
aF400000000.00000006
aF400000000.00000006
aF400000000.00000006
aF400000000.00000006
aF400000000.00000006
aF400000000.00000006
aF400000000.00000006
aF400000000.00000006
aF400000000.00000006
aF400000000.00000006
aF400000000.00000006
aF400000000.00000006
aF400000000.00000006
aF400000000.00000006
aF400000000.00000006
aF400000000.00000006
aF400000000.00000006
aF400000000.00000006
aF400000000.00000006
aF400000000.00000006
aF400000000.00000006
aF400000000.00000006
aF400000000.00000006
aF400000000.00000006
aF400000000.00000006
aF400000000.00000006
aF400000000.00000006
aF400000108.49466
aF400000108.49466
aF400000108.49466
aF400000108.49466
aF400000108.49466
aF400000108.49466
aF400000108.49466
aF400000108.49466
aF400000108.49466
aF400000108.49466
aF400000108.49466
aF400000108.49466
aF400000108.49466
aF400000108.49466
aF400000108.49466
aF400000108.49466
aF400000108.49466
aF400000108.49466
aF400000108.49466
aF400000108.49466
aF400000108.49466
aF400011740.6844306
aF400011740.6844306
aF400011740.6844306
aF400011740.6844306
aF400011740.6844306
aF400011740.6844306
aF400011740.6844306
aF400047647.2123307
aF400047654.2205443
aF400047654.2205443
aF400119891.70581865
aF400172421.9524383
aF400253581.7924223
aF400378717.06824946
aF400569743.6829422
aF400856641.5300212
aF401278355.6631046
aF401882342.56811506
aF402721682.23677295
aF403849486.370237
aF405311227.5687649
aF407137229.2601018
aF409359321.72624606
aF411955653.38719267
aF414890768.40528286
aF418124956.87727934
aF421601495.53620285
aF425249115.10305446
aF429053905.85059726
aF432988607.1384356
aF437013346.81650466
aF441048160.0044133
aF445027149.6188074
aF448853949.49341744
aF452480831.8321066
aF456191452.97398514
aF459662403.5268828
aF462722432.3039372
aF464688245.1416642
aF467064023.5884458
aF469329953.7802086
aF471207582.9669896
aF472826027.14888734
aF474226334.49311787
aF475264390.7708682
aF476128388.11032647
aF476748022.6180622
aF477174971.8476232
aF477501341.277421
aF477744459.74781615
aF477921475.71485466
aF478047793.25190014
aF478136337.4454863
aF478197419.02780056
aF478238941.4399314
aF478266785.63532776
aF478285219.4830864
aF478297280.91215754
aF478305090.4366932
aF478310114.591829
aF478313335.54542875
aF478315410.6146425
aF478316764.1767717
aF478317664.5702348
aF478318278.7133518
aF478318709.36620724
aF478319019.939723
aF478319250.01034725
aF478320262.31951946
aF478320262.31951946
aF478320262.31951946
aF478320262.31951946
aF478320262.31951946
aF478320262.31951946
aF478320262.31951946
aF478320262.31951946
aF478320262.31951946
aF478320262.31951946
aF478320262.31951946
aF478320262.31951946
aF478320262.31951946
aF478320262.31951946
aF478320262.31951946
aF478320262.31951946
aF478320262.31951946
aF478320262.31951946
aF478320262.31951946
aF478320262.31951946
aF478320262.31951946
aF478320262.31951946
aF478320262.31951946
aF478320261.5904989
aF478320261.5904989
aF478320261.5904989
aF478320261.5904989
aF478320261.5904989
aF478320261.5904989
aF478320261.5904989
aF478320261.5904989
aF478320261.5904989
aF478320261.5904989
aF478320261.5904989
aF478320261.5904989
aF478320261.5904989
aF478320261.5904989
aF478320261.5904989
aF478320261.5904989
aF478320261.5904989
aF478320261.5904989
aF478320261.5904989
aF478320261.5904989
aF478320261.5904989
aF478320261.5904989
aF478319854.2668788
aF478319854.2668788
aF478319854.2668788
aF478319854.2668788
aF478319854.2668788
aF478319854.2668788
aF478319854.2668788
aF478319854.2668788
aF478319854.2668788
aF478319854.2668788
aF478319854.2668788
aF478318079.56381565
aF478318079.56381565
aF478318079.56381565
aF478315761.4432517
aF478315761.4432517
aF478312171.0135134
aF478309090.62931013
aF478304600.55289024
aF478298057.7996717
aF478288563.31010073
aF478274872.37457776
aF478255290.6796443
aF478227519.73183835
aF478188510.32749873
aF478134255.64210993
aF478059595.1581819
aF477958019.5995025
aF477821543.93692005
aF477640680.88320625
aF477404630.52471507
aF477101748.63952947
aF476720370.7216413
aF476186381.8789711
aF475455388.2475538
aF474588956.94050545
aF473489393.35448277
aF472160374.7773065
aF470630207.28709227
aF468905354.27167886
aF466777695.01250124
aF464627903.991112
aF462793382.0593199
aF459929325.26534134
aF456696473.12616843
aF453127105.02622837
aF449543644.6524615
aF445728314.71501297
aF441616443.2955164
aF437316649.75047714
aF432846335.3113292
aF428254472.22521794
aF423539251.3064551
aF418682220.62622947
aF413688224.41897506
aF408586720.6618811
aF403409978.34123105
aF397524929.7177655
aF390477224.6480355
aF383465987.33483046
aF376494783.4482933
aF369567448.66364354
aF362688089.5741058
aF355861074.22734076
aF349091015.4805021
aF342382746.3641245
aF335741286.8666057
aF329171801.8665393
aF322679550.3463649
aF316269826.5028692
aF309947893.8997109
aF303718914.343844
aF297587873.66133755
aF291559506.944377
aF285638226.0893019
aF279828052.50587565
aF274132557.73030347
aF268554814.32192683
aF263097360.42712015
aF257762156.72103435
aF252550644.05224028
aF247463648.9809974
aF242501445.62982205
aF237663828.85771668
aF232950077.5083046
aF228359038.11348104
aF223889167.33055237
aF219538599.93813372
aF215305157.3016619
aF211186496.71624815
aF207180034.4434159
aF203283133.67186004
aF199493081.1779494
aF195807159.28315964
aF192222695.9850648
aF188737118.31555006
aF185348006.64048737
aF182053152.68106815
aF178850636.14953443
aF175738846.34769306
aF172716708.4444016
aF169783600.35961843
aF166939736.63194418
aF164186216.0677314
aF161525387.56001645
aF158961248.84544894
aF156500025.74185055
aF154150983.92008442
aF151927538.83510575
aF149848671.290784
aF147940417.30642137
aF146236520.4200121
aF144775922.91308558
aF143593333.00707087
aF142701694.32936618
aF142076826.35990855
aF141662559.92305616
aF141395085.8351816
aF141222796.8993303
aF141110761.16956306
aF141037027.12360418
aF140988009.25292796
aF140955195.07565922
aF140933133.58457482
aF140918258.16711244
aF140908196.2648552
aF140901355.0499161
aF140896663.7652012
aF140893406.2417465
aF140891107.2963033
aF140889453.8073713
aF140888240.0023523
aF140887330.27701348
aF140886634.5435597
aF140886092.21549684
aF140885661.93008453
aF140883215.08980915
aF140883215.08980915
aF140883215.08980915
aF140883215.08980915
aF140883215.08980915
aF140883215.08980915
aF140883215.08980915
aF140883215.08980915
aF140883215.08980915
aF140883215.08980915
aF140883215.08980915
aF140883215.08980915
aF140883215.08980915
aF140883215.08980915
aF140883215.08980915
aF140883215.08980915
aF140883215.08980915
aF140883215.08980915
aF140883215.08980915
aF140883215.08980915
aF140883215.08980915
aF140883215.08980915
aF140883215.08980915
aF140883215.08980915
aF140883215.08980915
aF140883215.08980915
aF140883215.08980915
aF140883215.08980915
aF140883215.08980915
asS'eps_t'
p3967
(lp3968
F0.039829857770207394
aF0.039829857770207394
aF0.039829857770207394
aF0.039829857770207394
aF0.039829857770207394
aF0.039829857770207394
aF0.039829857770207394
aF0.039829857770207394
aF0.039829857770207394
aF0.039829857770207394
aF0.039829857770207394
aF0.039829857770207394
aF0.039829857770207394
aF0.039829857770207394
aF0.039829857770207394
aF0.039829857770207394
aF0.039829857770207394
aF0.039829857770207394
aF0.039829857770207394
aF0.039829857770207394
aF0.039829857770207394
aF0.039829857770207394
aF0.039829857770207394
aF0.039829857770207394
aF0.039829857770207394
aF0.039829857770207394
aF0.039829857770207394
aF0.039829857770207394
aF0.039829857770207394
aF0.039829857770207394
aF0.039829857770207394
aF0.039829857770207394
aF0.039829857770207394
aF0.039829857770207394
aF0.039829857770207394
aF0.039829857770207394
aF0.039829857770207394
aF0.039829857770207394
aF0.039829857770207394
aF0.039829857770207394
aF0.039829857770207394
aF0.039829857770207394
aF0.039829857770207394
aF0.039829857770207394
aF0.039829857770207394
aF0.039829857770207394
aF0.039829857770207394
aF0.039829857770207394
aF0.039829857770207394
aF0.039829857770207394
aF0.039829857770207394
aF0.039829857770207394
aF0.039829857770207394
aF0.039829857770207394
aF0.039829857770207394
aF0.039829857770207394
aF0.039829857770207394
aF0.039829857770207394
aF0.039829857770207394
aF0.039829857770207394
aF0.039829857770207394
aF0.039829857770207394
aF0.039829857770207394
aF0.039829857770207394
aF0.039829857770207394
aF0.039829857770207394
aF0.039829857770207394
aF0.039829857770207394
aF0.039829857770207394
aF0.039829857770207394
aF0.039829857770207394
aF0.039829857770207394
aF0.039829857770207394
aF0.039829857770207394
aF0.039829857770207394
aF0.039829857770207394
aF0.039829857770207394
aF0.039829857770207394
aF0.039829857770207394
aF0.039829857770207394
aF0.039829857770207394
aF0.039829857770207394
aF0.039829857770207394
aF0.039829857770207394
aF0.039829857770207394
aF0.039829857770207394
aF0.039829857770207394
aF0.039829857770207394
aF0.039829857770207394
aF0.039829857770207394
aF0.039829857770207394
aF0.039829857770207394
aF0.039829857770207394
aF0.039829857770207394
aF0.039829857770207394
aF0.039829857770207394
aF0.039829857770207394
aF0.039829857770207394
aF0.039829857770207394
aF0.039829857770207394
aF0.039829857770207394
aF0.03982984665212859
aF0.03982984665212859
aF0.03982984665212859
aF0.03982984665212859
aF0.03982984665212859
aF0.03982984665212859
aF0.03982984665212859
aF0.03982984665212859
aF0.03982984665212859
aF0.03982984665212859
aF0.03982984665212859
aF0.03982984665212859
aF0.03982984665212859
aF0.03982984665212859
aF0.03982984665212859
aF0.03982984665212859
aF0.03982984665212859
aF0.03982984665212859
aF0.03982984665212859
aF0.03982984665212859
aF0.03982984665212859
aF0.039828654464454036
aF0.039828654464454036
aF0.039828654464454036
aF0.039828654464454036
aF0.039828654464454036
aF0.039828654464454036
aF0.039828654464454036
aF0.03982497149587436
aF0.03982497149587436
aF0.03982497149587436
aF0.03981755554842945
aF0.03981215513135922
aF0.03980379903741155
aF0.03979088594018002
aF0.039771104288776005
aF0.039741237182347865
aF0.039696986898145145
aF0.039632881598235706
aF0.03954233907864585
aF0.039417934462212256
aF0.03925183284565426
aF0.0390362470167755
aF0.03876460908280227
aF0.03842998905666515
aF0.03802547839375703
aF0.03754423317025315
aF0.03697786873150881
aF0.036315009337430634
aF0.03554918767341804
aF0.034673342224853916
aF0.0336787567796039
aF0.03254812030308746
aF0.03126344279573298
aF0.029797105390226928
aF0.028131948959650408
aF0.026354534656518273
aF0.024390233834851668
aF0.022204273800038477
aF0.019604301474893532
aF0.01714699697077352
aF0.0147316893908024
aF0.012345640999075407
aF0.010104970324164674
aF0.0080811509694652
aF0.006286676703237101
aF0.0047824750036044306
aF0.003551730079369643
aF0.002580651791059719
aF0.001841835100435245
aF0.00129331458632583
aF0.0008948748059497926
aF0.0006110164132443675
aF0.00041226386120182254
aF0.0002752649612800261
aF0.00018218373418426502
aF0.00011978761583549777
aF7.848763228573772e-05
aF5.1469824249797855e-05
aF3.3973582117450436e-05
aF2.272526571368859e-05
aF1.5511243137509137e-05
aF1.0864033330950872e-05
aF7.833040710921819e-06
aF5.81675372438583e-06
aF4.441477638367622e-06
aF3.4770931355019216e-06
aF2.7816047279351448e-06
aF2.266389558926733e-06
aF-3.90693946921046e-18
aF-3.90693946921046e-18
aF-3.90693946921046e-18
aF-3.90693946921046e-18
aF-3.90693946921046e-18
aF-3.90693946921046e-18
aF-3.90693946921046e-18
aF-3.90693946921046e-18
aF-3.90693946921046e-18
aF-3.90693946921046e-18
aF-3.90693946921046e-18
aF-3.90693946921046e-18
aF-3.90693946921046e-18
aF-3.90693946921046e-18
aF-3.90693946921046e-18
aF-3.90693946921046e-18
aF-3.90693946921046e-18
aF-3.90693946921046e-18
aF-3.90693946921046e-18
aF-3.90693946921046e-18
aF-3.90693946921046e-18
aF-3.90693946921046e-18
aF-3.90693946921046e-18
aF8.129032498236693e-10
aF8.129032498236693e-10
aF8.129032498236693e-10
aF8.129032498236693e-10
aF8.129032498236693e-10
aF8.129032498236693e-10
aF8.129032498236693e-10
aF8.129032498236693e-10
aF8.129032498236693e-10
aF8.129032498236693e-10
aF8.129032498236693e-10
aF8.129032498236693e-10
aF8.129032498236693e-10
aF8.129032498236693e-10
aF8.129032498236693e-10
aF8.129032498236693e-10
aF8.129032498236693e-10
aF8.129032498236693e-10
aF8.129032498236693e-10
aF8.129032498236693e-10
aF8.129032498236693e-10
aF8.129032498236693e-10
aF9.127262538709232e-07
aF9.127262538709232e-07
aF9.127262538709232e-07
aF9.127262538709232e-07
aF9.127262538709232e-07
aF9.127262538709232e-07
aF9.127262538709232e-07
aF9.127262538709232e-07
aF9.127262538709232e-07
aF9.127262538709232e-07
aF9.127262538709232e-07
aF4.88753218414408e-06
aF4.88753218414408e-06
aF4.88753218414408e-06
aF1.0078961889770624e-05
aF1.0078961889770624e-05
aF1.8122311715523883e-05
aF2.5018664130302924e-05
aF3.5075080783918894e-05
aF4.9729725541630984e-05
aF7.099788006922404e-05
aF0.0001016669274215918
aF0.0001455468560682399
aF0.0002077839926516984
aF0.0002952409447206422
aF0.0004169353315037495
aF0.0005845139542352203
aF0.0008127121560205117
aF0.0011197125533644416
aF0.0015272734024769942
aF0.0020604617806227626
aF0.0027468161946873084
aF0.0036148120637151796
aF0.004681184897164338
aF0.005954965791097977
aF0.0074559255861596325
aF0.009158932624751568
aF0.011044023774441492
aF0.013089115106575034
aF0.015258301744314286
aF0.017424647247888243
aF0.019687613400752677
aF0.022151143658567938
aF0.024207685429841683
aF0.026099652791172663
aF0.027822266418488083
aF0.029495271588941215
aF0.031020790736134642
aF0.03237385689663749
aF0.033599079700882196
aF0.03470646676955104
aF0.035716885769980486
aF0.036633892581384726
aF0.037457262202602634
aF0.03819473872108911
aF0.038860261874017435
aF0.039466795728481385
aF0.039871102398733996
aF0.03998856533479961
aF0.04010541942746404
aF0.040221606282054595
aF0.04033706196972214
aF0.040451718046616555
aF0.04056550171151481
aF0.040678336083269054
aF0.040790140611432775
aF0.0409008316298666
aF0.041010323057867594
aF0.041118527246596516
aF0.041225355960544614
aF0.04133072147495502
aF0.04143453776117024
aF0.041536721723650694
aF0.04163719444580506
aF0.04173588239763837
aF0.04183271855721796
aF0.04192764340041766
aF0.04202060571927629
aF0.04211156356065444
aF0.04220048053994027
aF0.04228734015733501
aF0.042372125177226716
aF0.042454826851566395
aF0.04253545391904342
aF0.04261401660222501
aF0.04269053392547207
aF0.04276503123413434
aF0.0428375421279455
aF0.04290809790561773
aF0.042976745249278976
aF0.04304351878161514
aF0.043108466436524114
aF0.04317163340317653
aF0.04323306507649579
aF0.04329280588435452
aF0.043350898640654924
aF0.04340738366749942
aF0.043462297765942404
aF0.04351567483375917
aF0.04356753603629903
aF0.04361790800913827
aF0.04366679122136978
aF0.04371418895016435
aF0.0437600809595679
aF0.043804428101363146
aF0.04384716374660594
aF0.04388818413166591
aF0.04392733482869535
aF0.043964392246778325
aF0.04399904003918369
aF0.0440308442722564
aF0.04405924255369655
aF0.04408358584547866
aF0.04410329567724557
aF0.044118156321873984
aF0.04412857078803161
aF0.04413547522864582
aF0.044139933130110394
aF0.04414280461237458
aF0.04414467187453737
aF0.04414590077530335
aF0.04414671773981462
aF0.0441472646427691
aF0.044147632334287173
aF0.04414788025791155
aF0.0441480479562825
aF0.044148161976531486
aF0.04414824016461007
aF0.044148294456667646
aF0.04414833277242503
aF0.0441483603305739
aF0.04414838056065755
aF0.04414839572274653
aF0.04414840731830409
aF0.04414841635710514
aF0.04414842352852868
aF0.044148464309199935
aF0.044148464309199935
aF0.044148464309199935
aF0.044148464309199935
aF0.044148464309199935
aF0.044148464309199935
aF0.044148464309199935
aF0.044148464309199935
aF0.044148464309199935
aF0.044148464309199935
aF0.044148464309199935
aF0.044148464309199935
aF0.044148464309199935
aF0.044148464309199935
aF0.044148464309199935
aF0.044148464309199935
aF0.044148464309199935
aF0.044148464309199935
aF0.044148464309199935
aF0.044148464309199935
aF0.044148464309199935
aF0.044148464309199935
aF0.044148464309199935
aF0.044148464309199935
aF0.044148464309199935
aF0.044148464309199935
aF0.044148464309199935
aF0.044148464309199935
aF0.044148464309199935
as.