(dp0
S'L_s'
p1
(lp2
F0.223595449392938
aF0.223595449392938
aF0.223595449392938
aF0.223595449392938
aF0.223595449392938
aF0.223595449392938
aF0.223595449392938
aF0.223595449392938
aF0.223595449392938
aF0.223595449392938
aF0.223595449392938
aF0.223595449392938
aF0.223595449392938
aF0.223595449392938
aF0.223595449392938
aF0.223595449392938
aF0.223595449392938
aF0.223595449392938
aF0.223595449392938
aF0.223595449392938
aF0.223595449392938
aF0.223595449392938
aF0.223595449392938
aF0.223595449392938
aF0.223595449392938
aF0.223595449392938
aF0.223595449392938
aF0.223595449392938
aF0.223595449392938
aF0.223595449392938
aF0.223595449392938
aF0.223595449392938
aF0.223595449392938
aF0.223595449392938
aF0.223595449392938
aF0.223595449392938
aF0.223595449392938
aF0.223595449392938
aF0.223595449392938
aF0.223595449392938
aF0.223595449392938
aF0.223595449392938
aF0.223595449392938
aF0.223595449392938
aF0.223595449392938
aF0.223595449392938
aF0.223595449392938
aF0.223595449392938
aF0.223595449392938
aF0.223595449392938
aF0.223595449392938
aF0.223595449392938
aF0.223595449392938
aF0.223595449392938
aF0.223595449392938
aF0.223595449392938
aF0.223595449392938
aF0.223595449392938
aF0.223595449392938
aF0.223595449392938
aF0.223595449392938
aF0.223595449392938
aF0.223595449392938
aF0.223595449392938
aF0.223595449392938
aF0.223595449392938
aF0.223595449392938
aF0.223595449392938
aF0.223595449392938
aF0.223595449392938
aF0.223595449392938
aF0.223595449392938
aF0.223595449392938
aF0.223595449392938
aF0.223595449392938
aF0.223595449392938
aF0.223595449392938
aF0.223595449392938
aF0.223595449392938
aF0.223595449392938
aF0.223595449392938
aF0.223595449392938
aF0.223595449392938
aF0.223595449392938
aF0.223595449392938
aF0.223595449392938
aF0.223595449392938
aF0.223595449392938
aF0.223595449392938
aF0.223595449392938
aF0.223595449392938
aF0.223595449392938
aF0.223595449392938
aF0.223595449392938
aF0.223595449392938
aF0.223595449392938
aF0.223595449392938
aF0.22359544805477266
aF0.2235954480547727
aF0.2235954480547727
aF0.2235954480547727
aF0.2235954480547727
aF0.2235954480547727
aF0.2235954480547727
aF0.2235954480547727
aF0.2235954480547727
aF0.2235954480547727
aF0.2235954480547727
aF0.2235954480547727
aF0.2235954480547727
aF0.2235954480547727
aF0.2235954480547727
aF0.2235954480547727
aF0.2235954480547727
aF0.2235954480547727
aF0.2235954480547727
aF0.22359519328467165
aF0.223595193284672
aF0.223595193284672
aF0.223595193284672
aF0.223595193284672
aF0.223595193284672
aF0.223595193284672
aF0.22359419526536
aF0.22359419526542476
aF0.22359293831937294
aF0.22359170680444262
aF0.2235897117462966
aF0.2235864870584309
aF0.22358134175874214
aF0.22357330312501156
aF0.2235610808995701
aF0.2235430793799199
aF0.22351747484224926
aF0.2234823420855086
aF0.22343577536710352
aF0.22337637301121108
aF0.2233021838477803
aF0.22321140055941083
aF0.22310209117314106
aF0.2229710720837261
aF0.22281607565256745
aF0.22263477308453644
aF0.22242559493731434
aF0.2221839365598894
aF0.22190188944408365
aF0.2215742024517451
aF0.2211888098075315
aF0.22077071227584025
aF0.22029135255336704
aF0.21971920764980807
aF0.21904185988653432
aF0.21840353271018678
aF0.2177200186699726
aF0.21704105138949456
aF0.21638229455263103
aF0.2157698066870363
aF0.21522119325222058
aF0.2147624529471838
aF0.21439416487758578
asS'xi'
p3
(lp4
F1.0
aF1.0
aF1.0
aF1.0
aF1.0
aF1.0
aF1.0
aF1.0
aF1.0
aF1.0
aF1.0
aF1.0
aF1.0
aF1.0
aF1.0
aF1.0
aF1.0
aF1.0
aF1.0
aF1.0
aF1.0
aF1.0
aF1.0
aF1.0
aF1.0
aF1.0
aF1.0
aF1.0
aF1.0
aF1.0
aF1.0
aF1.0
aF1.0
aF1.0
aF1.0
aF1.0
aF1.0
aF1.0
aF1.0
aF1.0
aF1.0
aF1.0
aF1.0
aF1.0
aF1.0
aF1.0
aF1.0
aF1.0
aF1.0
aF1.0
aF1.0
aF1.0
aF1.0
aF1.0
aF1.0
aF1.0
aF1.0
aF1.0
aF1.0
aF1.0
aF1.0
aF1.0
aF1.0
aF1.0
aF1.0
aF1.0
aF1.0
aF1.0
aF1.0
aF1.0
aF1.0
aF1.0
aF1.0
aF1.0
aF1.0
aF1.0
aF1.0
aF1.0
aF1.0
aF1.0
aF1.0
aF1.0
aF1.0
aF1.0
aF1.0
aF1.0
aF1.0
aF1.0
aF1.0
aF1.0
aF1.0
aF1.0
aF1.0
aF1.0
aF1.0
aF1.0
aF1.0
aF0.9999998472827639
aF0.9999998472827639
aF0.9999998472827639
aF0.9999998472827639
aF0.9999998472827639
aF0.9999998472827639
aF0.9999998472827639
aF0.9999998472827639
aF0.9999998472827639
aF0.9999998472827639
aF0.9999998472827639
aF0.9999998472827639
aF0.9999998472827639
aF0.9999998472827639
aF0.9999998472827639
aF0.9999998472827639
aF0.9999998472827639
aF0.9999998472827639
aF0.9999998472827639
aF0.9999707726426986
aF0.9999707726426986
aF0.9999707726426986
aF0.9999707726426986
aF0.9999707726426986
aF0.9999707726426986
aF0.9999707726426986
aF0.999856893488789
aF0.999856893488789
aF0.9997135054172602
aF0.9995730571960291
aF0.9993456117541136
aF0.998978194126566
aF0.998392479429075
aF0.9974787028906545
aF0.9960923426706045
aF0.9940567901869687
aF0.9911739941363835
aF0.9872408972373584
aF0.9820648057068384
aF0.9755013404649874
aF0.9673814202232802
aF0.9575486129094696
aF0.9458371590082391
aF0.931973759616362
aF0.9157541803991632
aF0.8969680704498575
aF0.8754716272982764
aF0.8508516913349711
aF0.8223902029143112
aF0.7895993250063802
aF0.7513697265242425
aF0.7099788340163473
aF0.6628263933577193
aF0.6070169800286721
aF0.5414157948168176
aF0.47936470591630914
aF0.4131722792088648
aF0.3475030618840788
aF0.283890747982072
aF0.22482511282153053
aF0.1720092902000432
aF0.12785932633504576
aF0.0924270365475353
asS'T'
p5
(lp6
cnumpy.core.multiarray
scalar
p7
(cnumpy
dtype
p8
(S'f8'
p9
I0
I1
tp10
Rp11
(I3
S'<'
p12
NNNI-1
I-1
I0
tp13
bS'\x00\x00\x00\x00\x00\x80k@'
p14
tp15
Rp16
ag7
(g11
S'f\xc7s*)\xa0k@'
p17
tp18
Rp19
ag7
(g11
S'\xcb\x8e\xe7TR\xc0k@'
p20
tp21
Rp22
ag7
(g11
S'1V[\x7f{\xe0k@'
p23
tp24
Rp25
ag7
(g11
S'\x96\x1d\xcf\xa9\xa4\x00l@'
p26
tp27
Rp28
ag7
(g11
S'\xfc\xe4B\xd4\xcd l@'
p29
tp30
Rp31
ag7
(g11
S'b\xac\xb6\xfe\xf6@l@'
p32
tp33
Rp34
ag7
(g11
S'\xc7s*) al@'
p35
tp36
Rp37
ag7
(g11
S'-;\x9eSI\x81l@'
p38
tp39
Rp40
ag7
(g11
S'\x93\x02\x12~r\xa1l@'
p41
tp42
Rp43
ag7
(g11
S'\xf8\xc9\x85\xa8\x9b\xc1l@'
p44
tp45
Rp46
ag7
(g11
S'^\x91\xf9\xd2\xc4\xe1l@'
p47
tp48
Rp49
ag7
(g11
S'\xc4Xm\xfd\xed\x01m@'
p50
tp51
Rp52
ag7
(g11
S') \xe1\'\x17"m@'
p53
tp54
Rp55
ag7
(g11
S'\x8f\xe7TR@Bm@'
p56
tp57
Rp58
ag7
(g11
S'\xf4\xae\xc8|ibm@'
p59
tp60
Rp61
ag7
(g11
S'Zv<\xa7\x92\x82m@'
p62
tp63
Rp64
ag7
(g11
S'\xc0=\xb0\xd1\xbb\xa2m@'
p65
tp66
Rp67
ag7
(g11
S'%\x05$\xfc\xe4\xc2m@'
p68
tp69
Rp70
ag7
(g11
S'\x8b\xcc\x97&\x0e\xe3m@'
p71
tp72
Rp73
ag7
(g11
S'\xf0\x93\x0bQ7\x03n@'
p74
tp75
Rp76
ag7
(g11
S'V[\x7f{`#n@'
p77
tp78
Rp79
ag7
(g11
S'\xbc"\xf3\xa5\x89Cn@'
p80
tp81
Rp82
ag7
(g11
S'!\xeaf\xd0\xb2cn@'
p83
tp84
Rp85
ag7
(g11
S'\x87\xb1\xda\xfa\xdb\x83n@'
p86
tp87
Rp88
ag7
(g11
S'\xedxN%\x05\xa4n@'
p89
tp90
Rp91
ag7
(g11
S'R@\xc2O.\xc4n@'
p92
tp93
Rp94
ag7
(g11
S'\xb8\x076zW\xe4n@'
p95
tp96
Rp97
ag7
(g11
S'\x1e\xcf\xa9\xa4\x80\x04o@'
p98
tp99
Rp100
ag7
(g11
S'\x83\x96\x1d\xcf\xa9$o@'
p101
tp102
Rp103
ag7
(g11
S'\xe9]\x91\xf9\xd2Do@'
p104
tp105
Rp106
ag7
(g11
S'N%\x05$\xfcdo@'
p107
tp108
Rp109
ag7
(g11
S'\xb4\xecxN%\x85o@'
p110
tp111
Rp112
ag7
(g11
S'\x1a\xb4\xecxN\xa5o@'
p113
tp114
Rp115
ag7
(g11
S'\x7f{`\xa3w\xc5o@'
p116
tp117
Rp118
ag7
(g11
S'\xe5B\xd4\xcd\xa0\xe5o@'
p119
tp120
Rp121
ag7
(g11
S'%\x05$\xfc\xe4\x02p@'
p122
tp123
Rp124
ag7
(g11
S'\xd8\xe8]\x91\xf9\x12p@'
p125
tp126
Rp127
ag7
(g11
S'\x8b\xcc\x97&\x0e#p@'
p128
tp129
Rp130
ag7
(g11
S'>\xb0\xd1\xbb"3p@'
p131
tp132
Rp133
ag7
(g11
S'\xf0\x93\x0bQ7Cp@'
p134
tp135
Rp136
ag7
(g11
S'\xa3wE\xe6KSp@'
p137
tp138
Rp139
ag7
(g11
S'V[\x7f{`cp@'
p140
tp141
Rp142
ag7
(g11
S'\t?\xb9\x10usp@'
p143
tp144
Rp145
ag7
(g11
S'\xbc"\xf3\xa5\x89\x83p@'
p146
tp147
Rp148
ag7
(g11
S'n\x06-;\x9e\x93p@'
p149
tp150
Rp151
ag7
(g11
S'!\xeaf\xd0\xb2\xa3p@'
p152
tp153
Rp154
ag7
(g11
S'\xd4\xcd\xa0e\xc7\xb3p@'
p155
tp156
Rp157
ag7
(g11
S'\x87\xb1\xda\xfa\xdb\xc3p@'
p158
tp159
Rp160
ag7
(g11
S':\x95\x14\x90\xf0\xd3p@'
p161
tp162
Rp163
ag7
(g11
S'\xedxN%\x05\xe4p@'
p164
tp165
Rp166
ag7
(g11
S'\xa0\\\x88\xba\x19\xf4p@'
p167
tp168
Rp169
ag7
(g11
S'R@\xc2O.\x04q@'
p170
tp171
Rp172
ag7
(g11
S'\x05$\xfc\xe4B\x14q@'
p173
tp174
Rp175
ag7
(g11
S'\xb8\x076zW$q@'
p176
tp177
Rp178
ag7
(g11
S'k\xebo\x0fl4q@'
p179
tp180
Rp181
ag7
(g11
S'\x1e\xcf\xa9\xa4\x80Dq@'
p182
tp183
Rp184
ag7
(g11
S'\xd0\xb2\xe39\x95Tq@'
p185
tp186
Rp187
ag7
(g11
S'\x83\x96\x1d\xcf\xa9dq@'
p188
tp189
Rp190
ag7
(g11
S'6zWd\xbetq@'
p191
tp192
Rp193
ag7
(g11
S'\xe9]\x91\xf9\xd2\x84q@'
p194
tp195
Rp196
ag7
(g11
S'\x9cA\xcb\x8e\xe7\x94q@'
p197
tp198
Rp199
ag7
(g11
S'N%\x05$\xfc\xa4q@'
p200
tp201
Rp202
ag7
(g11
S'\x01\t?\xb9\x10\xb5q@'
p203
tp204
Rp205
ag7
(g11
S'\xb4\xecxN%\xc5q@'
p206
tp207
Rp208
ag7
(g11
S'g\xd0\xb2\xe39\xd5q@'
p209
tp210
Rp211
ag7
(g11
S'\x1a\xb4\xecxN\xe5q@'
p212
tp213
Rp214
ag7
(g11
S'\xcc\x97&\x0ec\xf5q@'
p215
tp216
Rp217
ag7
(g11
S'\x7f{`\xa3w\x05r@'
p218
tp219
Rp220
ag7
(g11
S'2_\x9a8\x8c\x15r@'
p221
tp222
Rp223
ag7
(g11
S'\xe5B\xd4\xcd\xa0%r@'
p224
tp225
Rp226
ag7
(g11
S'\x98&\x0ec\xb55r@'
p227
tp228
Rp229
ag7
(g11
S'J\nH\xf8\xc9Er@'
p230
tp231
Rp232
ag7
(g11
S'\xfd\xed\x81\x8d\xdeUr@'
p233
tp234
Rp235
ag7
(g11
S'\xb0\xd1\xbb"\xf3er@'
p236
tp237
Rp238
ag7
(g11
S'c\xb5\xf5\xb7\x07vr@'
p239
tp240
Rp241
ag7
(g11
S'\x16\x99/M\x1c\x86r@'
p242
tp243
Rp244
ag7
(g11
S'\xc8|i\xe20\x96r@'
p245
tp246
Rp247
ag7
(g11
S'|`\xa3wE\xa6r@'
p248
tp249
Rp250
ag7
(g11
S'.D\xdd\x0cZ\xb6r@'
p251
tp252
Rp253
ag7
(g11
S"\xe1'\x17\xa2n\xc6r@"
p254
tp255
Rp256
ag7
(g11
S'\x94\x0bQ7\x83\xd6r@'
p257
tp258
Rp259
ag7
(g11
S'F\xef\x8a\xcc\x97\xe6r@'
p260
tp261
Rp262
ag7
(g11
S'\xfa\xd2\xc4a\xac\xf6r@'
p263
tp264
Rp265
ag7
(g11
S'\xac\xb6\xfe\xf6\xc0\x06s@'
p266
tp267
Rp268
ag7
(g11
S'_\x9a8\x8c\xd5\x16s@'
p269
tp270
Rp271
ag7
(g11
S'\x12~r!\xea&s@'
p272
tp273
Rp274
ag7
(g11
S'\xc5a\xac\xb6\xfe6s@'
p275
tp276
Rp277
ag7
(g11
S'xE\xe6K\x13Gs@'
p278
tp279
Rp280
ag7
(g11
S"*) \xe1'Ws@"
p281
tp282
Rp283
ag7
(g11
S'\xdd\x0cZv<gs@'
p284
tp285
Rp286
ag7
(g11
S'\x90\xf0\x93\x0bQws@'
p287
tp288
Rp289
ag7
(g11
S'C\xd4\xcd\xa0e\x87s@'
p290
tp291
Rp292
ag7
(g11
S'\xf6\xb7\x076z\x97s@'
p293
tp294
Rp295
ag7
(g11
S'\xa8\x9bA\xcb\x8e\xa7s@'
p296
tp297
Rp298
ag7
(g11
S'[\x7f{`\xa3\xb7s@'
p299
tp300
Rp301
ag7
(g11
S'\x0ec\xb5\xf5\xb7\xc7s@'
p302
tp303
Rp304
ag7
(g11
S'\xc1F\xef\x8a\xcc\xd7s@'
p305
tp306
Rp307
ag7
(g11
S't*) \xe1\xe7s@'
p308
tp309
Rp310
ag7
(g11
S'&\x0ec\xb5\xf5\xf7s@'
p311
tp312
Rp313
ag7
(g11
S'\xd9\xf1\x9cJ\n\x08t@'
p314
tp315
Rp316
ag7
(g11
S'\x8c\xd5\xd6\xdf\x1e\x18t@'
p317
tp318
Rp319
ag7
(g11
S'?\xb9\x10u3(t@'
p320
tp321
Rp322
ag7
(g11
S'\xf2\x9cJ\nH8t@'
p323
tp324
Rp325
ag7
(g11
S'\xa4\x80\x84\x9f\\Ht@'
p326
tp327
Rp328
ag7
(g11
S'Wd\xbe4qXt@'
p329
tp330
Rp331
ag7
(g11
S'\nH\xf8\xc9\x85ht@'
p332
tp333
Rp334
ag7
(g11
S'\xbd+2_\x9axt@'
p335
tp336
Rp337
ag7
(g11
S'p\x0fl\xf4\xae\x88t@'
p338
tp339
Rp340
ag7
(g11
S'"\xf3\xa5\x89\xc3\x98t@'
p341
tp342
Rp343
ag7
(g11
S'\xd6\xd6\xdf\x1e\xd8\xa8t@'
p344
tp345
Rp346
ag7
(g11
S'\x88\xba\x19\xb4\xec\xb8t@'
p347
tp348
Rp349
ag7
(g11
S';\x9eSI\x01\xc9t@'
p350
tp351
Rp352
ag7
(g11
S'\xee\x81\x8d\xde\x15\xd9t@'
p353
tp354
Rp355
ag7
(g11
S'\xa0e\xc7s*\xe9t@'
p356
tp357
Rp358
ag7
(g11
S'TI\x01\t?\xf9t@'
p359
tp360
Rp361
ag7
(g11
S'\x06-;\x9eS\tu@'
p362
tp363
Rp364
ag7
(g11
S'\xb9\x10u3h\x19u@'
p365
tp366
Rp367
ag7
(g11
S'l\xf4\xae\xc8|)u@'
p368
tp369
Rp370
ag7
(g11
S'\x1f\xd8\xe8]\x919u@'
p371
tp372
Rp373
ag7
(g11
S'\xd2\xbb"\xf3\xa5Iu@'
p374
tp375
Rp376
ag7
(g11
S'\x84\x9f\\\x88\xbaYu@'
p377
tp378
Rp379
ag7
(g11
S'7\x83\x96\x1d\xcfiu@'
p380
tp381
Rp382
ag7
(g11
S'\xeaf\xd0\xb2\xe3yu@'
p383
tp384
Rp385
ag7
(g11
S'\x9dJ\nH\xf8\x89u@'
p386
tp387
Rp388
ag7
(g11
S'P.D\xdd\x0c\x9au@'
p389
tp390
Rp391
ag7
(g11
S'\x02\x12~r!\xaau@'
p392
tp393
Rp394
ag7
(g11
S'\xb5\xf5\xb7\x076\xbau@'
p395
tp396
Rp397
ag7
(g11
S'h\xd9\xf1\x9cJ\xcau@'
p398
tp399
Rp400
ag7
(g11
S'\x1b\xbd+2_\xdau@'
p401
tp402
Rp403
ag7
(g11
S'\xce\xa0e\xc7s\xeau@'
p404
tp405
Rp406
ag7
(g11
S'\x80\x84\x9f\\\x88\xfau@'
p407
tp408
Rp409
ag7
(g11
S'3h\xd9\xf1\x9c\nv@'
p410
tp411
Rp412
ag7
(g11
S'\xe6K\x13\x87\xb1\x1av@'
p413
tp414
Rp415
ag7
(g11
S'\x99/M\x1c\xc6*v@'
p416
tp417
Rp418
ag7
(g11
S'L\x13\x87\xb1\xda:v@'
p419
tp420
Rp421
ag7
(g11
S'\xfe\xf6\xc0F\xefJv@'
p422
tp423
Rp424
ag7
(g11
S'\xb2\xda\xfa\xdb\x03[v@'
p425
tp426
Rp427
ag7
(g11
S'd\xbe4q\x18kv@'
p428
tp429
Rp430
ag7
(g11
S'\x17\xa2n\x06-{v@'
p431
tp432
Rp433
ag7
(g11
S'\xca\x85\xa8\x9bA\x8bv@'
p434
tp435
Rp436
ag7
(g11
S'|i\xe20V\x9bv@'
p437
tp438
Rp439
ag7
(g11
S'0M\x1c\xc6j\xabv@'
p440
tp441
Rp442
ag7
(g11
S'\xe20V[\x7f\xbbv@'
p443
tp444
Rp445
ag7
(g11
S'\x95\x14\x90\xf0\x93\xcbv@'
p446
tp447
Rp448
ag7
(g11
S'H\xf8\xc9\x85\xa8\xdbv@'
p449
tp450
Rp451
ag7
(g11
S'\xfa\xdb\x03\x1b\xbd\xebv@'
p452
tp453
Rp454
ag7
(g11
S'\xae\xbf=\xb0\xd1\xfbv@'
p455
tp456
Rp457
ag7
(g11
S'`\xa3wE\xe6\x0bw@'
p458
tp459
Rp460
ag7
(g11
S'\x13\x87\xb1\xda\xfa\x1bw@'
p461
tp462
Rp463
ag7
(g11
S'\xc6j\xebo\x0f,w@'
p464
tp465
Rp466
ag7
(g11
S'xN%\x05$<w@'
p467
tp468
Rp469
ag7
(g11
S',2_\x9a8Lw@'
p470
tp471
Rp472
ag7
(g11
S'\xde\x15\x99/M\\w@'
p473
tp474
Rp475
ag7
(g11
S'\x91\xf9\xd2\xc4alw@'
p476
tp477
Rp478
ag7
(g11
S'D\xdd\x0cZv|w@'
p479
tp480
Rp481
ag7
(g11
S'\xf7\xc0F\xef\x8a\x8cw@'
p482
tp483
Rp484
ag7
(g11
S'\xaa\xa4\x80\x84\x9f\x9cw@'
p485
tp486
Rp487
ag7
(g11
S'\\\x88\xba\x19\xb4\xacw@'
p488
tp489
Rp490
ag7
(g11
S'\x0fl\xf4\xae\xc8\xbcw@'
p491
tp492
Rp493
asS'eps_l'
p494
(lp495
g7
(g11
S'\xe0r\x01\x02\x8a\xc9\xe1\xbf'
p496
tp497
Rp498
ag7
(g11
S'\xe0r\x01\x02\x8a\xc9\xe1\xbf'
p499
tp500
Rp501
ag7
(g11
S'\xe0r\x01\x02\x8a\xc9\xe1\xbf'
p502
tp503
Rp504
ag7
(g11
S'\xe0r\x01\x02\x8a\xc9\xe1\xbf'
p505
tp506
Rp507
ag7
(g11
S'\xe0r\x01\x02\x8a\xc9\xe1\xbf'
p508
tp509
Rp510
ag7
(g11
S'\xe0r\x01\x02\x8a\xc9\xe1\xbf'
p511
tp512
Rp513
ag7
(g11
S'\xe0r\x01\x02\x8a\xc9\xe1\xbf'
p514
tp515
Rp516
ag7
(g11
S'\xe0r\x01\x02\x8a\xc9\xe1\xbf'
p517
tp518
Rp519
ag7
(g11
S'\xe0r\x01\x02\x8a\xc9\xe1\xbf'
p520
tp521
Rp522
ag7
(g11
S'\xe0r\x01\x02\x8a\xc9\xe1\xbf'
p523
tp524
Rp525
ag7
(g11
S'\xe0r\x01\x02\x8a\xc9\xe1\xbf'
p526
tp527
Rp528
ag7
(g11
S'\xe0r\x01\x02\x8a\xc9\xe1\xbf'
p529
tp530
Rp531
ag7
(g11
S'\xe0r\x01\x02\x8a\xc9\xe1\xbf'
p532
tp533
Rp534
ag7
(g11
S'\xe0r\x01\x02\x8a\xc9\xe1\xbf'
p535
tp536
Rp537
ag7
(g11
S'\xe0r\x01\x02\x8a\xc9\xe1\xbf'
p538
tp539
Rp540
ag7
(g11
S'\xe0r\x01\x02\x8a\xc9\xe1\xbf'
p541
tp542
Rp543
ag7
(g11
S'\xe0r\x01\x02\x8a\xc9\xe1\xbf'
p544
tp545
Rp546
ag7
(g11
S'\xe0r\x01\x02\x8a\xc9\xe1\xbf'
p547
tp548
Rp549
ag7
(g11
S'\xe0r\x01\x02\x8a\xc9\xe1\xbf'
p550
tp551
Rp552
ag7
(g11
S'\xe0r\x01\x02\x8a\xc9\xe1\xbf'
p553
tp554
Rp555
ag7
(g11
S'\xe0r\x01\x02\x8a\xc9\xe1\xbf'
p556
tp557
Rp558
ag7
(g11
S'\xe0r\x01\x02\x8a\xc9\xe1\xbf'
p559
tp560
Rp561
ag7
(g11
S'\xe0r\x01\x02\x8a\xc9\xe1\xbf'
p562
tp563
Rp564
ag7
(g11
S'\xe0r\x01\x02\x8a\xc9\xe1\xbf'
p565
tp566
Rp567
ag7
(g11
S'\xe0r\x01\x02\x8a\xc9\xe1\xbf'
p568
tp569
Rp570
ag7
(g11
S'\xe0r\x01\x02\x8a\xc9\xe1\xbf'
p571
tp572
Rp573
ag7
(g11
S'\xe0r\x01\x02\x8a\xc9\xe1\xbf'
p574
tp575
Rp576
ag7
(g11
S'\xe0r\x01\x02\x8a\xc9\xe1\xbf'
p577
tp578
Rp579
ag7
(g11
S'\xe0r\x01\x02\x8a\xc9\xe1\xbf'
p580
tp581
Rp582
ag7
(g11
S'\xe0r\x01\x02\x8a\xc9\xe1\xbf'
p583
tp584
Rp585
ag7
(g11
S'\xe0r\x01\x02\x8a\xc9\xe1\xbf'
p586
tp587
Rp588
ag7
(g11
S'\xe0r\x01\x02\x8a\xc9\xe1\xbf'
p589
tp590
Rp591
ag7
(g11
S'\xe0r\x01\x02\x8a\xc9\xe1\xbf'
p592
tp593
Rp594
ag7
(g11
S'\xe0r\x01\x02\x8a\xc9\xe1\xbf'
p595
tp596
Rp597
ag7
(g11
S'\xe0r\x01\x02\x8a\xc9\xe1\xbf'
p598
tp599
Rp600
ag7
(g11
S'\xe0r\x01\x02\x8a\xc9\xe1\xbf'
p601
tp602
Rp603
ag7
(g11
S'\xe0r\x01\x02\x8a\xc9\xe1\xbf'
p604
tp605
Rp606
ag7
(g11
S'\xe0r\x01\x02\x8a\xc9\xe1\xbf'
p607
tp608
Rp609
ag7
(g11
S'\xe0r\x01\x02\x8a\xc9\xe1\xbf'
p610
tp611
Rp612
ag7
(g11
S'\xe0r\x01\x02\x8a\xc9\xe1\xbf'
p613
tp614
Rp615
ag7
(g11
S'\xe0r\x01\x02\x8a\xc9\xe1\xbf'
p616
tp617
Rp618
ag7
(g11
S'\xe0r\x01\x02\x8a\xc9\xe1\xbf'
p619
tp620
Rp621
ag7
(g11
S'\xe0r\x01\x02\x8a\xc9\xe1\xbf'
p622
tp623
Rp624
ag7
(g11
S'\xe0r\x01\x02\x8a\xc9\xe1\xbf'
p625
tp626
Rp627
ag7
(g11
S'\xe0r\x01\x02\x8a\xc9\xe1\xbf'
p628
tp629
Rp630
ag7
(g11
S'\xe0r\x01\x02\x8a\xc9\xe1\xbf'
p631
tp632
Rp633
ag7
(g11
S'\xe0r\x01\x02\x8a\xc9\xe1\xbf'
p634
tp635
Rp636
ag7
(g11
S'\xe0r\x01\x02\x8a\xc9\xe1\xbf'
p637
tp638
Rp639
ag7
(g11
S'\xe0r\x01\x02\x8a\xc9\xe1\xbf'
p640
tp641
Rp642
ag7
(g11
S'\xe0r\x01\x02\x8a\xc9\xe1\xbf'
p643
tp644
Rp645
ag7
(g11
S'\xe0r\x01\x02\x8a\xc9\xe1\xbf'
p646
tp647
Rp648
ag7
(g11
S'\xe0r\x01\x02\x8a\xc9\xe1\xbf'
p649
tp650
Rp651
ag7
(g11
S'\xe0r\x01\x02\x8a\xc9\xe1\xbf'
p652
tp653
Rp654
ag7
(g11
S'\xe0r\x01\x02\x8a\xc9\xe1\xbf'
p655
tp656
Rp657
ag7
(g11
S'\xe0r\x01\x02\x8a\xc9\xe1\xbf'
p658
tp659
Rp660
ag7
(g11
S'\xe0r\x01\x02\x8a\xc9\xe1\xbf'
p661
tp662
Rp663
ag7
(g11
S'\xe0r\x01\x02\x8a\xc9\xe1\xbf'
p664
tp665
Rp666
ag7
(g11
S'\xe0r\x01\x02\x8a\xc9\xe1\xbf'
p667
tp668
Rp669
ag7
(g11
S'\xe0r\x01\x02\x8a\xc9\xe1\xbf'
p670
tp671
Rp672
ag7
(g11
S'\xe0r\x01\x02\x8a\xc9\xe1\xbf'
p673
tp674
Rp675
ag7
(g11
S'\xe0r\x01\x02\x8a\xc9\xe1\xbf'
p676
tp677
Rp678
ag7
(g11
S'\xe0r\x01\x02\x8a\xc9\xe1\xbf'
p679
tp680
Rp681
ag7
(g11
S'\xe0r\x01\x02\x8a\xc9\xe1\xbf'
p682
tp683
Rp684
ag7
(g11
S'\xe0r\x01\x02\x8a\xc9\xe1\xbf'
p685
tp686
Rp687
ag7
(g11
S'\xe0r\x01\x02\x8a\xc9\xe1\xbf'
p688
tp689
Rp690
ag7
(g11
S'\xe0r\x01\x02\x8a\xc9\xe1\xbf'
p691
tp692
Rp693
ag7
(g11
S'\xe0r\x01\x02\x8a\xc9\xe1\xbf'
p694
tp695
Rp696
ag7
(g11
S'\xe0r\x01\x02\x8a\xc9\xe1\xbf'
p697
tp698
Rp699
ag7
(g11
S'\xe0r\x01\x02\x8a\xc9\xe1\xbf'
p700
tp701
Rp702
ag7
(g11
S'\xe0r\x01\x02\x8a\xc9\xe1\xbf'
p703
tp704
Rp705
ag7
(g11
S'\xe0r\x01\x02\x8a\xc9\xe1\xbf'
p706
tp707
Rp708
ag7
(g11
S'\xe0r\x01\x02\x8a\xc9\xe1\xbf'
p709
tp710
Rp711
ag7
(g11
S'\xe0r\x01\x02\x8a\xc9\xe1\xbf'
p712
tp713
Rp714
ag7
(g11
S'\xe0r\x01\x02\x8a\xc9\xe1\xbf'
p715
tp716
Rp717
ag7
(g11
S'\xe0r\x01\x02\x8a\xc9\xe1\xbf'
p718
tp719
Rp720
ag7
(g11
S'\xe0r\x01\x02\x8a\xc9\xe1\xbf'
p721
tp722
Rp723
ag7
(g11
S'\xe0r\x01\x02\x8a\xc9\xe1\xbf'
p724
tp725
Rp726
ag7
(g11
S'\xe0r\x01\x02\x8a\xc9\xe1\xbf'
p727
tp728
Rp729
ag7
(g11
S'\xe0r\x01\x02\x8a\xc9\xe1\xbf'
p730
tp731
Rp732
ag7
(g11
S'\xe0r\x01\x02\x8a\xc9\xe1\xbf'
p733
tp734
Rp735
ag7
(g11
S'\xe0r\x01\x02\x8a\xc9\xe1\xbf'
p736
tp737
Rp738
ag7
(g11
S'\xe0r\x01\x02\x8a\xc9\xe1\xbf'
p739
tp740
Rp741
ag7
(g11
S'\xe0r\x01\x02\x8a\xc9\xe1\xbf'
p742
tp743
Rp744
ag7
(g11
S'\xe0r\x01\x02\x8a\xc9\xe1\xbf'
p745
tp746
Rp747
ag7
(g11
S'\xe0r\x01\x02\x8a\xc9\xe1\xbf'
p748
tp749
Rp750
ag7
(g11
S'\xe0r\x01\x02\x8a\xc9\xe1\xbf'
p751
tp752
Rp753
ag7
(g11
S'\xe0r\x01\x02\x8a\xc9\xe1\xbf'
p754
tp755
Rp756
ag7
(g11
S'\xe0r\x01\x02\x8a\xc9\xe1\xbf'
p757
tp758
Rp759
ag7
(g11
S'\xe0r\x01\x02\x8a\xc9\xe1\xbf'
p760
tp761
Rp762
ag7
(g11
S'\xe0r\x01\x02\x8a\xc9\xe1\xbf'
p763
tp764
Rp765
ag7
(g11
S'\xe0r\x01\x02\x8a\xc9\xe1\xbf'
p766
tp767
Rp768
ag7
(g11
S'\xe0r\x01\x02\x8a\xc9\xe1\xbf'
p769
tp770
Rp771
ag7
(g11
S'\xe0r\x01\x02\x8a\xc9\xe1\xbf'
p772
tp773
Rp774
ag7
(g11
S'\xe0r\x01\x02\x8a\xc9\xe1\xbf'
p775
tp776
Rp777
ag7
(g11
S'\xe0r\x01\x02\x8a\xc9\xe1\xbf'
p778
tp779
Rp780
ag7
(g11
S'\xe0r\x01\x02\x8a\xc9\xe1\xbf'
p781
tp782
Rp783
ag7
(g11
S'\xe0r\x01\x02\x8a\xc9\xe1\xbf'
p784
tp785
Rp786
ag7
(g11
S'\\@\x13\x06\x8a\xc9\xe1\xbf'
p787
tp788
Rp789
ag7
(g11
S'\\@\x13\x06\x8a\xc9\xe1\xbf'
p790
tp791
Rp792
ag7
(g11
S'\\@\x13\x06\x8a\xc9\xe1\xbf'
p793
tp794
Rp795
ag7
(g11
S'\\@\x13\x06\x8a\xc9\xe1\xbf'
p796
tp797
Rp798
ag7
(g11
S'\\@\x13\x06\x8a\xc9\xe1\xbf'
p799
tp800
Rp801
ag7
(g11
S'\\@\x13\x06\x8a\xc9\xe1\xbf'
p802
tp803
Rp804
ag7
(g11
S'\\@\x13\x06\x8a\xc9\xe1\xbf'
p805
tp806
Rp807
ag7
(g11
S'\\@\x13\x06\x8a\xc9\xe1\xbf'
p808
tp809
Rp810
ag7
(g11
S'\\@\x13\x06\x8a\xc9\xe1\xbf'
p811
tp812
Rp813
ag7
(g11
S'\\@\x13\x06\x8a\xc9\xe1\xbf'
p814
tp815
Rp816
ag7
(g11
S'\\@\x13\x06\x8a\xc9\xe1\xbf'
p817
tp818
Rp819
ag7
(g11
S'\\@\x13\x06\x8a\xc9\xe1\xbf'
p820
tp821
Rp822
ag7
(g11
S'\\@\x13\x06\x8a\xc9\xe1\xbf'
p823
tp824
Rp825
ag7
(g11
S'\\@\x13\x06\x8a\xc9\xe1\xbf'
p826
tp827
Rp828
ag7
(g11
S'\\@\x13\x06\x8a\xc9\xe1\xbf'
p829
tp830
Rp831
ag7
(g11
S'\\@\x13\x06\x8a\xc9\xe1\xbf'
p832
tp833
Rp834
ag7
(g11
S'\\@\x13\x06\x8a\xc9\xe1\xbf'
p835
tp836
Rp837
ag7
(g11
S'\\@\x13\x06\x8a\xc9\xe1\xbf'
p838
tp839
Rp840
ag7
(g11
S'\\@\x13\x06\x8a\xc9\xe1\xbf'
p841
tp842
Rp843
ag7
(g11
S'\xbb)\xd6\x0c\x8d\xc9\xe1\xbf'
p844
tp845
Rp846
ag7
(g11
S'\xaa)\xd6\x0c\x8d\xc9\xe1\xbf'
p847
tp848
Rp849
ag7
(g11
S'\xa8)\xd6\x0c\x8d\xc9\xe1\xbf'
p850
tp851
Rp852
ag7
(g11
S'\xa8)\xd6\x0c\x8d\xc9\xe1\xbf'
p853
tp854
Rp855
ag7
(g11
S'\xaa)\xd6\x0c\x8d\xc9\xe1\xbf'
p856
tp857
Rp858
ag7
(g11
S'\xaa)\xd6\x0c\x8d\xc9\xe1\xbf'
p859
tp860
Rp861
ag7
(g11
S'\xaa)\xd6\x0c\x8d\xc9\xe1\xbf'
p862
tp863
Rp864
ag7
(g11
S'=\xadG\xe7\x98\xc9\xe1\xbf'
p865
tp866
Rp867
ag7
(g11
S'V\xa0G\xe7\x98\xc9\xe1\xbf'
p868
tp869
Rp870
ag7
(g11
S'z\x8c\xb9\xd3\xa7\xc9\xe1\xbf'
p871
tp872
Rp873
ag7
(g11
S'\xa0L\x84q\xb6\xc9\xe1\xbf'
p874
tp875
Rp876
ag7
(g11
S'4\xcac\x1c\xce\xc9\xe1\xbf'
p877
tp878
Rp879
ag7
(g11
S'~\xc3*V\xf4\xc9\xe1\xbf'
p880
tp881
Rp882
ag7
(g11
S'\x04\xe9tA1\xca\xe1\xbf'
p883
tp884
Rp885
ag7
(g11
S'nPU@\x90\xca\xe1\xbf'
p886
tp887
Rp888
ag7
(g11
S'P\xd5UE \xcb\xe1\xbf'
p889
tp890
Rp891
ag7
(g11
S'\xc9]\x91~\xf3\xcb\xe1\xbf'
p892
tp893
Rp894
ag7
(g11
S'\xc1)]#\x1e\xcd\xe1\xbf'
p895
tp896
Rp897
ag7
(g11
S'\xb9\x86=\x9d\xb4\xce\xe1\xbf'
p898
tp899
Rp900
ag7
(g11
S'h\xfa\xcd\xc3\xc9\xd0\xe1\xbf'
p901
tp902
Rp903
ag7
(g11
S'\n\xafM!i\xd3\xe1\xbf'
p904
tp905
Rp906
ag7
(g11
S'r\xc8*\xd4\xa2\xd6\xe1\xbf'
p907
tp908
Rp909
ag7
(g11
S'\xb8\xa3p\x80\x83\xda\xe1\xbf'
p910
tp911
Rp912
ag7
(g11
S'\xa2\xb2dW\x17\xdf\xe1\xbf'
p913
tp914
Rp915
ag7
(g11
S'T\xb0\xd1\xccu\xe4\xe1\xbf'
p916
tp917
Rp918
ag7
(g11
S'*\x83VU\xaa\xea\xe1\xbf'
p919
tp920
Rp921
ag7
(g11
S'\xfa_jn\xbf\xf1\xe1\xbf'
p922
tp923
Rp924
ag7
(g11
S"'\xd7\t\xff\xb6\xf9\xe1\xbf"
p925
tp926
Rp927
ag7
(g11
S'\\L\x82:\xaf\x02\xe2\xbf'
p928
tp929
Rp930
ag7
(g11
S'\x90sN\xaf\xe1\x0c\xe2\xbf'
p931
tp932
Rp933
ag7
(g11
S'F~\x1b\xb4j\x18\xe2\xbf'
p934
tp935
Rp936
ag7
(g11
S'N\xa3\xc03\x9f%\xe2\xbf'
p937
tp938
Rp939
ag7
(g11
S'R\x0b\xf6|\x933\xe2\xbf'
p940
tp941
Rp942
ag7
(g11
S'\xdc\xbb\xe5\x08-C\xe2\xbf'
p943
tp944
Rp945
ag7
(g11
S'\xc5|F\x04TU\xe2\xbf'
p946
tp947
Rp948
ag7
(g11
S'zT\xd2\xc0Ej\xe2\xbf'
p949
tp950
Rp951
ag7
(g11
S'X\xd6\xc6\xdf\x8e}\xe2\xbf'
p952
tp953
Rp954
ag7
(g11
S'F\xea~\x80\xcc\x91\xe2\xbf'
p955
tp956
Rp957
ag7
(g11
S'\xba;Gm\x8b\xa5\xe2\xbf'
p958
tp959
Rp960
ag7
(g11
S'\xe6R\x8a\x8dg\xb8\xe2\xbf'
p961
tp962
Rp963
ag7
(g11
S'\xc4\x92`\x05\xb5\xc9\xe2\xbf'
p964
tp965
Rp966
ag7
(g11
S'\x8eet\xd1\x08\xd9\xe2\xbf'
p967
tp968
Rp969
ag7
(g11
S'\\i\x0c\xd4\xbc\xe5\xe2\xbf'
p970
tp971
Rp972
ag7
(g11
S'\xbc=j\xd9\xdd\xef\xe2\xbf'
p973
tp974
Rp975
asS'eps_s'
p976
(lp977
F0.05346674954666036
ag7
(g11
S'g\xe1si\xfe_\xab?'
p978
tp979
Rp980
ag7
(g11
S'g\xe1si\xfe_\xab?'
p981
tp982
Rp983
ag7
(g11
S'g\xe1si\xfe_\xab?'
p984
tp985
Rp986
ag7
(g11
S'g\xe1si\xfe_\xab?'
p987
tp988
Rp989
ag7
(g11
S'g\xe1si\xfe_\xab?'
p990
tp991
Rp992
ag7
(g11
S'g\xe1si\xfe_\xab?'
p993
tp994
Rp995
ag7
(g11
S'g\xe1si\xfe_\xab?'
p996
tp997
Rp998
ag7
(g11
S'g\xe1si\xfe_\xab?'
p999
tp1000
Rp1001
ag7
(g11
S'g\xe1si\xfe_\xab?'
p1002
tp1003
Rp1004
ag7
(g11
S'g\xe1si\xfe_\xab?'
p1005
tp1006
Rp1007
ag7
(g11
S'g\xe1si\xfe_\xab?'
p1008
tp1009
Rp1010
ag7
(g11
S'g\xe1si\xfe_\xab?'
p1011
tp1012
Rp1013
ag7
(g11
S'g\xe1si\xfe_\xab?'
p1014
tp1015
Rp1016
ag7
(g11
S'g\xe1si\xfe_\xab?'
p1017
tp1018
Rp1019
ag7
(g11
S'g\xe1si\xfe_\xab?'
p1020
tp1021
Rp1022
ag7
(g11
S'g\xe1si\xfe_\xab?'
p1023
tp1024
Rp1025
ag7
(g11
S'g\xe1si\xfe_\xab?'
p1026
tp1027
Rp1028
ag7
(g11
S'g\xe1si\xfe_\xab?'
p1029
tp1030
Rp1031
ag7
(g11
S'g\xe1si\xfe_\xab?'
p1032
tp1033
Rp1034
ag7
(g11
S'g\xe1si\xfe_\xab?'
p1035
tp1036
Rp1037
ag7
(g11
S'g\xe1si\xfe_\xab?'
p1038
tp1039
Rp1040
ag7
(g11
S'g\xe1si\xfe_\xab?'
p1041
tp1042
Rp1043
ag7
(g11
S'g\xe1si\xfe_\xab?'
p1044
tp1045
Rp1046
ag7
(g11
S'g\xe1si\xfe_\xab?'
p1047
tp1048
Rp1049
ag7
(g11
S'g\xe1si\xfe_\xab?'
p1050
tp1051
Rp1052
ag7
(g11
S'g\xe1si\xfe_\xab?'
p1053
tp1054
Rp1055
ag7
(g11
S'g\xe1si\xfe_\xab?'
p1056
tp1057
Rp1058
ag7
(g11
S'g\xe1si\xfe_\xab?'
p1059
tp1060
Rp1061
ag7
(g11
S'g\xe1si\xfe_\xab?'
p1062
tp1063
Rp1064
ag7
(g11
S'g\xe1si\xfe_\xab?'
p1065
tp1066
Rp1067
ag7
(g11
S'g\xe1si\xfe_\xab?'
p1068
tp1069
Rp1070
ag7
(g11
S'g\xe1si\xfe_\xab?'
p1071
tp1072
Rp1073
ag7
(g11
S'g\xe1si\xfe_\xab?'
p1074
tp1075
Rp1076
ag7
(g11
S'g\xe1si\xfe_\xab?'
p1077
tp1078
Rp1079
ag7
(g11
S'g\xe1si\xfe_\xab?'
p1080
tp1081
Rp1082
ag7
(g11
S'g\xe1si\xfe_\xab?'
p1083
tp1084
Rp1085
ag7
(g11
S'g\xe1si\xfe_\xab?'
p1086
tp1087
Rp1088
ag7
(g11
S'g\xe1si\xfe_\xab?'
p1089
tp1090
Rp1091
ag7
(g11
S'g\xe1si\xfe_\xab?'
p1092
tp1093
Rp1094
ag7
(g11
S'g\xe1si\xfe_\xab?'
p1095
tp1096
Rp1097
ag7
(g11
S'g\xe1si\xfe_\xab?'
p1098
tp1099
Rp1100
ag7
(g11
S'g\xe1si\xfe_\xab?'
p1101
tp1102
Rp1103
ag7
(g11
S'g\xe1si\xfe_\xab?'
p1104
tp1105
Rp1106
ag7
(g11
S'g\xe1si\xfe_\xab?'
p1107
tp1108
Rp1109
ag7
(g11
S'g\xe1si\xfe_\xab?'
p1110
tp1111
Rp1112
ag7
(g11
S'g\xe1si\xfe_\xab?'
p1113
tp1114
Rp1115
ag7
(g11
S'g\xe1si\xfe_\xab?'
p1116
tp1117
Rp1118
ag7
(g11
S'g\xe1si\xfe_\xab?'
p1119
tp1120
Rp1121
ag7
(g11
S'g\xe1si\xfe_\xab?'
p1122
tp1123
Rp1124
ag7
(g11
S'g\xe1si\xfe_\xab?'
p1125
tp1126
Rp1127
ag7
(g11
S'g\xe1si\xfe_\xab?'
p1128
tp1129
Rp1130
ag7
(g11
S'g\xe1si\xfe_\xab?'
p1131
tp1132
Rp1133
ag7
(g11
S'g\xe1si\xfe_\xab?'
p1134
tp1135
Rp1136
ag7
(g11
S'g\xe1si\xfe_\xab?'
p1137
tp1138
Rp1139
ag7
(g11
S'g\xe1si\xfe_\xab?'
p1140
tp1141
Rp1142
ag7
(g11
S'g\xe1si\xfe_\xab?'
p1143
tp1144
Rp1145
ag7
(g11
S'g\xe1si\xfe_\xab?'
p1146
tp1147
Rp1148
ag7
(g11
S'g\xe1si\xfe_\xab?'
p1149
tp1150
Rp1151
ag7
(g11
S'g\xe1si\xfe_\xab?'
p1152
tp1153
Rp1154
ag7
(g11
S'g\xe1si\xfe_\xab?'
p1155
tp1156
Rp1157
ag7
(g11
S'g\xe1si\xfe_\xab?'
p1158
tp1159
Rp1160
ag7
(g11
S'g\xe1si\xfe_\xab?'
p1161
tp1162
Rp1163
ag7
(g11
S'g\xe1si\xfe_\xab?'
p1164
tp1165
Rp1166
ag7
(g11
S'g\xe1si\xfe_\xab?'
p1167
tp1168
Rp1169
ag7
(g11
S'g\xe1si\xfe_\xab?'
p1170
tp1171
Rp1172
ag7
(g11
S'g\xe1si\xfe_\xab?'
p1173
tp1174
Rp1175
ag7
(g11
S'g\xe1si\xfe_\xab?'
p1176
tp1177
Rp1178
ag7
(g11
S'g\xe1si\xfe_\xab?'
p1179
tp1180
Rp1181
ag7
(g11
S'g\xe1si\xfe_\xab?'
p1182
tp1183
Rp1184
ag7
(g11
S'g\xe1si\xfe_\xab?'
p1185
tp1186
Rp1187
ag7
(g11
S'g\xe1si\xfe_\xab?'
p1188
tp1189
Rp1190
ag7
(g11
S'g\xe1si\xfe_\xab?'
p1191
tp1192
Rp1193
ag7
(g11
S'g\xe1si\xfe_\xab?'
p1194
tp1195
Rp1196
ag7
(g11
S'g\xe1si\xfe_\xab?'
p1197
tp1198
Rp1199
ag7
(g11
S'g\xe1si\xfe_\xab?'
p1200
tp1201
Rp1202
ag7
(g11
S'g\xe1si\xfe_\xab?'
p1203
tp1204
Rp1205
ag7
(g11
S'g\xe1si\xfe_\xab?'
p1206
tp1207
Rp1208
ag7
(g11
S'g\xe1si\xfe_\xab?'
p1209
tp1210
Rp1211
ag7
(g11
S'g\xe1si\xfe_\xab?'
p1212
tp1213
Rp1214
ag7
(g11
S'g\xe1si\xfe_\xab?'
p1215
tp1216
Rp1217
ag7
(g11
S'g\xe1si\xfe_\xab?'
p1218
tp1219
Rp1220
ag7
(g11
S'g\xe1si\xfe_\xab?'
p1221
tp1222
Rp1223
ag7
(g11
S'g\xe1si\xfe_\xab?'
p1224
tp1225
Rp1226
ag7
(g11
S'g\xe1si\xfe_\xab?'
p1227
tp1228
Rp1229
ag7
(g11
S'g\xe1si\xfe_\xab?'
p1230
tp1231
Rp1232
ag7
(g11
S'g\xe1si\xfe_\xab?'
p1233
tp1234
Rp1235
ag7
(g11
S'g\xe1si\xfe_\xab?'
p1236
tp1237
Rp1238
ag7
(g11
S'g\xe1si\xfe_\xab?'
p1239
tp1240
Rp1241
ag7
(g11
S'g\xe1si\xfe_\xab?'
p1242
tp1243
Rp1244
ag7
(g11
S'g\xe1si\xfe_\xab?'
p1245
tp1246
Rp1247
ag7
(g11
S'g\xe1si\xfe_\xab?'
p1248
tp1249
Rp1250
ag7
(g11
S'g\xe1si\xfe_\xab?'
p1251
tp1252
Rp1253
ag7
(g11
S'g\xe1si\xfe_\xab?'
p1254
tp1255
Rp1256
ag7
(g11
S'g\xe1si\xfe_\xab?'
p1257
tp1258
Rp1259
ag7
(g11
S'g\xe1si\xfe_\xab?'
p1260
tp1261
Rp1262
ag7
(g11
S'g\xe1si\xfe_\xab?'
p1263
tp1264
Rp1265
ag7
(g11
S'\x82@\x0b6\xfe_\xab?'
p1266
tp1267
Rp1268
ag7
(g11
S'\x83@\x0b6\xfe_\xab?'
p1269
tp1270
Rp1271
ag7
(g11
S'\x81@\x0b6\xfe_\xab?'
p1272
tp1273
Rp1274
ag7
(g11
S'\x81@\x0b6\xfe_\xab?'
p1275
tp1276
Rp1277
ag7
(g11
S'\x81@\x0b6\xfe_\xab?'
p1278
tp1279
Rp1280
ag7
(g11
S'\x81@\x0b6\xfe_\xab?'
p1281
tp1282
Rp1283
ag7
(g11
S'\x81@\x0b6\xfe_\xab?'
p1284
tp1285
Rp1286
ag7
(g11
S'\x81@\x0b6\xfe_\xab?'
p1287
tp1288
Rp1289
ag7
(g11
S'\x81@\x0b6\xfe_\xab?'
p1290
tp1291
Rp1292
ag7
(g11
S'\x81@\x0b6\xfe_\xab?'
p1293
tp1294
Rp1295
ag7
(g11
S'\x81@\x0b6\xfe_\xab?'
p1296
tp1297
Rp1298
ag7
(g11
S'\x81@\x0b6\xfe_\xab?'
p1299
tp1300
Rp1301
ag7
(g11
S'\x81@\x0b6\xfe_\xab?'
p1302
tp1303
Rp1304
ag7
(g11
S'\x81@\x0b6\xfe_\xab?'
p1305
tp1306
Rp1307
ag7
(g11
S'\x81@\x0b6\xfe_\xab?'
p1308
tp1309
Rp1310
ag7
(g11
S'\x81@\x0b6\xfe_\xab?'
p1311
tp1312
Rp1313
ag7
(g11
S'\x81@\x0b6\xfe_\xab?'
p1314
tp1315
Rp1316
ag7
(g11
S'\x81@\x0b6\xfe_\xab?'
p1317
tp1318
Rp1319
ag7
(g11
S'\x81@\x0b6\xfe_\xab?'
p1320
tp1321
Rp1322
ag7
(g11
S' \x98v\xfa\xd7_\xab?'
p1323
tp1324
Rp1325
ag7
(g11
S'\x02\x99v\xfa\xd7_\xab?'
p1326
tp1327
Rp1328
ag7
(g11
S'\x04\x99v\xfa\xd7_\xab?'
p1329
tp1330
Rp1331
ag7
(g11
S'\x00\x99v\xfa\xd7_\xab?'
p1332
tp1333
Rp1334
ag7
(g11
S'\x03\x99v\xfa\xd7_\xab?'
p1335
tp1336
Rp1337
ag7
(g11
S'\x03\x99v\xfa\xd7_\xab?'
p1338
tp1339
Rp1340
ag7
(g11
S'\x03\x99v\xfa\xd7_\xab?'
p1341
tp1342
Rp1343
ag7
(g11
S'\xbb:@5B_\xab?'
p1344
tp1345
Rp1346
ag7
(g11
S'\xd4\xdd@5B_\xab?'
p1347
tp1348
Rp1349
ag7
(g11
S'\xfe\x00\xc6\x94\x85^\xab?'
p1350
tp1351
Rp1352
ag7
(g11
S'p\xe6I\xc5\xcc]\xab?'
p1353
tp1354
Rp1355
ag7
(g11
S'\x8b\xff\x87`\xa1\\\xab?'
p1356
tp1357
Rp1358
ag7
(g11
S'\xe9\xb7\xb6t\xbdZ\xab?'
p1359
tp1360
Rp1361
ag7
(g11
S'oy*P\xb9W\xab?'
p1362
tp1363
Rp1364
ag7
(g11
S'\xb3\x82\x85\xf9\x02S\xab?'
p1365
tp1366
Rp1367
ag7
(g11
S'\xa3\xde\x8e\xd0\xd8K\xab?'
p1368
tp1369
Rp1370
ag7
(g11
S'\xdf\x98\xaf^KA\xab?'
p1371
tp1372
Rp1373
ag7
(g11
S'\xe0\xdbY\xf5H2\xab?'
p1374
tp1375
Rp1376
ag7
(g11
S'(m\x84\xab\xb0\x1d\xab?'
p1377
tp1378
Rp1379
ag7
(g11
S'v\xac\xb0\x83d\x02\xab?'
p1380
tp1381
Rp1382
ag7
(g11
S'\xd8\x06C%\x92\xdf\xaa?'
p1383
tp1384
Rp1385
ag7
(g11
S'N\x8b\x89\xc1\x14\xb4\xaa?'
p1386
tp1387
Rp1388
ag7
(g11
S'R\xa8@ \xdd~\xaa?'
p1389
tp1390
Rp1391
ag7
(g11
S'\x0e\x896T\xc9>\xaa?'
p1392
tp1393
Rp1394
ag7
(g11
S'D~\xe2\x9b\xfb\xf1\xa9?'
p1395
tp1396
Rp1397
ag7
(g11
S'"1\xb4\xaa\x1f\x97\xa9?'
p1398
tp1399
Rp1400
ag7
(g11
S'\xbb4\xa3\x06\xd8,\xa9?'
p1401
tp1402
Rp1403
ag7
(g11
S'*\xfb\xf0)9\xb2\xa8?'
p1404
tp1405
Rp1406
ag7
(g11
S"\xb6'U\x12\x90$\xa8?"
p1407
tp1408
Rp1409
ag7
(g11
S'\tw=\xf09\x7f\xa7?'
p1410
tp1411
Rp1412
ag7
(g11
S'H]\x16\xbd"\xbf\xa6?'
p1413
tp1414
Rp1415
ag7
(g11
S'\x0b[M\xca7\xdd\xa5?'
p1416
tp1417
Rp1418
ag7
(g11
S'\x03\x9e\xe0\xe5 \xe8\xa4?'
p1419
tp1420
Rp1421
ag7
(g11
S'l\x15.\x89 \xcf\xa3?'
p1422
tp1423
Rp1424
ag7
(g11
S'V\xec\xdf\x1f\xbc\x7f\xa2?'
p1425
tp1426
Rp1427
ag7
(g11
S'n\x9a6,\xac\xf2\xa0?'
p1428
tp1429
Rp1430
ag7
(g11
S'\x91\x15\xb0\xe4\xf7\xf8\x9e?'
p1431
tp1432
Rp1433
ag7
(g11
S'\xb2X\xe1E\x9d\xd7\x9b?'
p1434
tp1435
Rp1436
ag7
(g11
S'\xea\x9d\x95K\x97\xbb\x98?'
p1437
tp1438
Rp1439
ag7
(g11
S'\xc35\xd8.C\xb7\x95?'
p1440
tp1441
Rp1442
ag7
(g11
S'APy\x04.\xe9\x92?'
p1443
tp1444
Rp1445
ag7
(g11
S'\x8c\x1a\x17\xd1\xfbe\x90?'
p1446
tp1447
Rp1448
ag7
(g11
S'\xc1\xee0iO\x98\x8c?'
p1449
tp1450
Rp1451
ag7
(g11
S'^\xe5\xb1\xfc\xbe8\x89?'
p1452
tp1453
Rp1454
asS'F_l'
p1455
(lp1456
g7
(g11
S'\xa8\x06\x11\\\xbd;Q\xc0'
p1457
tp1458
Rp1459
ag7
(g11
S'\xa8\x06\x11\\\xbd;Q\xc0'
p1460
tp1461
Rp1462
ag7
(g11
S'\xa8\x06\x11\\\xbd;Q\xc0'
p1463
tp1464
Rp1465
ag7
(g11
S'\xa8\x06\x11\\\xbd;Q\xc0'
p1466
tp1467
Rp1468
ag7
(g11
S'\xa8\x06\x11\\\xbd;Q\xc0'
p1469
tp1470
Rp1471
ag7
(g11
S'\xa8\x06\x11\\\xbd;Q\xc0'
p1472
tp1473
Rp1474
ag7
(g11
S'\xa8\x06\x11\\\xbd;Q\xc0'
p1475
tp1476
Rp1477
ag7
(g11
S'\xa8\x06\x11\\\xbd;Q\xc0'
p1478
tp1479
Rp1480
ag7
(g11
S'\xa8\x06\x11\\\xbd;Q\xc0'
p1481
tp1482
Rp1483
ag7
(g11
S'\xa8\x06\x11\\\xbd;Q\xc0'
p1484
tp1485
Rp1486
ag7
(g11
S'\xa8\x06\x11\\\xbd;Q\xc0'
p1487
tp1488
Rp1489
ag7
(g11
S'\xa8\x06\x11\\\xbd;Q\xc0'
p1490
tp1491
Rp1492
ag7
(g11
S'\xa8\x06\x11\\\xbd;Q\xc0'
p1493
tp1494
Rp1495
ag7
(g11
S'\xa8\x06\x11\\\xbd;Q\xc0'
p1496
tp1497
Rp1498
ag7
(g11
S'\xa8\x06\x11\\\xbd;Q\xc0'
p1499
tp1500
Rp1501
ag7
(g11
S'\xa8\x06\x11\\\xbd;Q\xc0'
p1502
tp1503
Rp1504
ag7
(g11
S'\xa8\x06\x11\\\xbd;Q\xc0'
p1505
tp1506
Rp1507
ag7
(g11
S'\xa8\x06\x11\\\xbd;Q\xc0'
p1508
tp1509
Rp1510
ag7
(g11
S'\xa8\x06\x11\\\xbd;Q\xc0'
p1511
tp1512
Rp1513
ag7
(g11
S'\xa8\x06\x11\\\xbd;Q\xc0'
p1514
tp1515
Rp1516
ag7
(g11
S'\xa8\x06\x11\\\xbd;Q\xc0'
p1517
tp1518
Rp1519
ag7
(g11
S'\xa8\x06\x11\\\xbd;Q\xc0'
p1520
tp1521
Rp1522
ag7
(g11
S'\xa8\x06\x11\\\xbd;Q\xc0'
p1523
tp1524
Rp1525
ag7
(g11
S'\xa8\x06\x11\\\xbd;Q\xc0'
p1526
tp1527
Rp1528
ag7
(g11
S'\xa8\x06\x11\\\xbd;Q\xc0'
p1529
tp1530
Rp1531
ag7
(g11
S'\xa8\x06\x11\\\xbd;Q\xc0'
p1532
tp1533
Rp1534
ag7
(g11
S'\xa8\x06\x11\\\xbd;Q\xc0'
p1535
tp1536
Rp1537
ag7
(g11
S'\xa8\x06\x11\\\xbd;Q\xc0'
p1538
tp1539
Rp1540
ag7
(g11
S'\xa8\x06\x11\\\xbd;Q\xc0'
p1541
tp1542
Rp1543
ag7
(g11
S'\xa8\x06\x11\\\xbd;Q\xc0'
p1544
tp1545
Rp1546
ag7
(g11
S'\xa8\x06\x11\\\xbd;Q\xc0'
p1547
tp1548
Rp1549
ag7
(g11
S'\xa8\x06\x11\\\xbd;Q\xc0'
p1550
tp1551
Rp1552
ag7
(g11
S'\xa8\x06\x11\\\xbd;Q\xc0'
p1553
tp1554
Rp1555
ag7
(g11
S'\xa8\x06\x11\\\xbd;Q\xc0'
p1556
tp1557
Rp1558
ag7
(g11
S'\xa8\x06\x11\\\xbd;Q\xc0'
p1559
tp1560
Rp1561
ag7
(g11
S'\xa8\x06\x11\\\xbd;Q\xc0'
p1562
tp1563
Rp1564
ag7
(g11
S'\xa8\x06\x11\\\xbd;Q\xc0'
p1565
tp1566
Rp1567
ag7
(g11
S'\xa8\x06\x11\\\xbd;Q\xc0'
p1568
tp1569
Rp1570
ag7
(g11
S'\xa8\x06\x11\\\xbd;Q\xc0'
p1571
tp1572
Rp1573
ag7
(g11
S'\xa8\x06\x11\\\xbd;Q\xc0'
p1574
tp1575
Rp1576
ag7
(g11
S'\xa8\x06\x11\\\xbd;Q\xc0'
p1577
tp1578
Rp1579
ag7
(g11
S'\xa8\x06\x11\\\xbd;Q\xc0'
p1580
tp1581
Rp1582
ag7
(g11
S'\xa8\x06\x11\\\xbd;Q\xc0'
p1583
tp1584
Rp1585
ag7
(g11
S'\xa8\x06\x11\\\xbd;Q\xc0'
p1586
tp1587
Rp1588
ag7
(g11
S'\xa8\x06\x11\\\xbd;Q\xc0'
p1589
tp1590
Rp1591
ag7
(g11
S'\xa8\x06\x11\\\xbd;Q\xc0'
p1592
tp1593
Rp1594
ag7
(g11
S'\xa8\x06\x11\\\xbd;Q\xc0'
p1595
tp1596
Rp1597
ag7
(g11
S'\xa8\x06\x11\\\xbd;Q\xc0'
p1598
tp1599
Rp1600
ag7
(g11
S'\xa8\x06\x11\\\xbd;Q\xc0'
p1601
tp1602
Rp1603
ag7
(g11
S'\xa8\x06\x11\\\xbd;Q\xc0'
p1604
tp1605
Rp1606
ag7
(g11
S'\xa8\x06\x11\\\xbd;Q\xc0'
p1607
tp1608
Rp1609
ag7
(g11
S'\xa8\x06\x11\\\xbd;Q\xc0'
p1610
tp1611
Rp1612
ag7
(g11
S'\xa8\x06\x11\\\xbd;Q\xc0'
p1613
tp1614
Rp1615
ag7
(g11
S'\xa8\x06\x11\\\xbd;Q\xc0'
p1616
tp1617
Rp1618
ag7
(g11
S'\xa8\x06\x11\\\xbd;Q\xc0'
p1619
tp1620
Rp1621
ag7
(g11
S'\xa8\x06\x11\\\xbd;Q\xc0'
p1622
tp1623
Rp1624
ag7
(g11
S'\xa8\x06\x11\\\xbd;Q\xc0'
p1625
tp1626
Rp1627
ag7
(g11
S'\xa8\x06\x11\\\xbd;Q\xc0'
p1628
tp1629
Rp1630
ag7
(g11
S'\xa8\x06\x11\\\xbd;Q\xc0'
p1631
tp1632
Rp1633
ag7
(g11
S'\xa8\x06\x11\\\xbd;Q\xc0'
p1634
tp1635
Rp1636
ag7
(g11
S'\xa8\x06\x11\\\xbd;Q\xc0'
p1637
tp1638
Rp1639
ag7
(g11
S'\xa8\x06\x11\\\xbd;Q\xc0'
p1640
tp1641
Rp1642
ag7
(g11
S'\xa8\x06\x11\\\xbd;Q\xc0'
p1643
tp1644
Rp1645
ag7
(g11
S'\xa8\x06\x11\\\xbd;Q\xc0'
p1646
tp1647
Rp1648
ag7
(g11
S'\xa8\x06\x11\\\xbd;Q\xc0'
p1649
tp1650
Rp1651
ag7
(g11
S'\xa8\x06\x11\\\xbd;Q\xc0'
p1652
tp1653
Rp1654
ag7
(g11
S'\xa8\x06\x11\\\xbd;Q\xc0'
p1655
tp1656
Rp1657
ag7
(g11
S'\xa8\x06\x11\\\xbd;Q\xc0'
p1658
tp1659
Rp1660
ag7
(g11
S'\xa8\x06\x11\\\xbd;Q\xc0'
p1661
tp1662
Rp1663
ag7
(g11
S'\xa8\x06\x11\\\xbd;Q\xc0'
p1664
tp1665
Rp1666
ag7
(g11
S'\xa8\x06\x11\\\xbd;Q\xc0'
p1667
tp1668
Rp1669
ag7
(g11
S'\xa8\x06\x11\\\xbd;Q\xc0'
p1670
tp1671
Rp1672
ag7
(g11
S'\xa8\x06\x11\\\xbd;Q\xc0'
p1673
tp1674
Rp1675
ag7
(g11
S'\xa8\x06\x11\\\xbd;Q\xc0'
p1676
tp1677
Rp1678
ag7
(g11
S'\xa8\x06\x11\\\xbd;Q\xc0'
p1679
tp1680
Rp1681
ag7
(g11
S'\xa8\x06\x11\\\xbd;Q\xc0'
p1682
tp1683
Rp1684
ag7
(g11
S'\xa8\x06\x11\\\xbd;Q\xc0'
p1685
tp1686
Rp1687
ag7
(g11
S'\xa8\x06\x11\\\xbd;Q\xc0'
p1688
tp1689
Rp1690
ag7
(g11
S'\xa8\x06\x11\\\xbd;Q\xc0'
p1691
tp1692
Rp1693
ag7
(g11
S'\xa8\x06\x11\\\xbd;Q\xc0'
p1694
tp1695
Rp1696
ag7
(g11
S'\xa8\x06\x11\\\xbd;Q\xc0'
p1697
tp1698
Rp1699
ag7
(g11
S'\xa8\x06\x11\\\xbd;Q\xc0'
p1700
tp1701
Rp1702
ag7
(g11
S'\xa8\x06\x11\\\xbd;Q\xc0'
p1703
tp1704
Rp1705
ag7
(g11
S'\xa8\x06\x11\\\xbd;Q\xc0'
p1706
tp1707
Rp1708
ag7
(g11
S'\xa8\x06\x11\\\xbd;Q\xc0'
p1709
tp1710
Rp1711
ag7
(g11
S'\xa8\x06\x11\\\xbd;Q\xc0'
p1712
tp1713
Rp1714
ag7
(g11
S'\xa8\x06\x11\\\xbd;Q\xc0'
p1715
tp1716
Rp1717
ag7
(g11
S'\xa8\x06\x11\\\xbd;Q\xc0'
p1718
tp1719
Rp1720
ag7
(g11
S'\xa8\x06\x11\\\xbd;Q\xc0'
p1721
tp1722
Rp1723
ag7
(g11
S'\xa8\x06\x11\\\xbd;Q\xc0'
p1724
tp1725
Rp1726
ag7
(g11
S'\xa8\x06\x11\\\xbd;Q\xc0'
p1727
tp1728
Rp1729
ag7
(g11
S'\xa8\x06\x11\\\xbd;Q\xc0'
p1730
tp1731
Rp1732
ag7
(g11
S'\xa8\x06\x11\\\xbd;Q\xc0'
p1733
tp1734
Rp1735
ag7
(g11
S'\xa8\x06\x11\\\xbd;Q\xc0'
p1736
tp1737
Rp1738
ag7
(g11
S'\xa8\x06\x11\\\xbd;Q\xc0'
p1739
tp1740
Rp1741
ag7
(g11
S'\xa8\x06\x11\\\xbd;Q\xc0'
p1742
tp1743
Rp1744
ag7
(g11
S'\xa8\x06\x11\\\xbd;Q\xc0'
p1745
tp1746
Rp1747
ag7
(g11
S'\xedb\x02`\xbd;Q\xc0'
p1748
tp1749
Rp1750
ag7
(g11
S'\xedb\x02`\xbd;Q\xc0'
p1751
tp1752
Rp1753
ag7
(g11
S'\xedb\x02`\xbd;Q\xc0'
p1754
tp1755
Rp1756
ag7
(g11
S'\xedb\x02`\xbd;Q\xc0'
p1757
tp1758
Rp1759
ag7
(g11
S'\xedb\x02`\xbd;Q\xc0'
p1760
tp1761
Rp1762
ag7
(g11
S'\xedb\x02`\xbd;Q\xc0'
p1763
tp1764
Rp1765
ag7
(g11
S'\xedb\x02`\xbd;Q\xc0'
p1766
tp1767
Rp1768
ag7
(g11
S'\xedb\x02`\xbd;Q\xc0'
p1769
tp1770
Rp1771
ag7
(g11
S'\xedb\x02`\xbd;Q\xc0'
p1772
tp1773
Rp1774
ag7
(g11
S'\xedb\x02`\xbd;Q\xc0'
p1775
tp1776
Rp1777
ag7
(g11
S'\xedb\x02`\xbd;Q\xc0'
p1778
tp1779
Rp1780
ag7
(g11
S'\xedb\x02`\xbd;Q\xc0'
p1781
tp1782
Rp1783
ag7
(g11
S'\xedb\x02`\xbd;Q\xc0'
p1784
tp1785
Rp1786
ag7
(g11
S'\xedb\x02`\xbd;Q\xc0'
p1787
tp1788
Rp1789
ag7
(g11
S'\xedb\x02`\xbd;Q\xc0'
p1790
tp1791
Rp1792
ag7
(g11
S'\xedb\x02`\xbd;Q\xc0'
p1793
tp1794
Rp1795
ag7
(g11
S'\xedb\x02`\xbd;Q\xc0'
p1796
tp1797
Rp1798
ag7
(g11
S'\xedb\x02`\xbd;Q\xc0'
p1799
tp1800
Rp1801
ag7
(g11
S'\xedb\x02`\xbd;Q\xc0'
p1802
tp1803
Rp1804
ag7
(g11
S'\xb3\xed\xa4N\xc0;Q\xc0'
p1805
tp1806
Rp1807
ag7
(g11
S'\xa3\xed\xa4N\xc0;Q\xc0'
p1808
tp1809
Rp1810
ag7
(g11
S'\xa1\xed\xa4N\xc0;Q\xc0'
p1811
tp1812
Rp1813
ag7
(g11
S'\xa1\xed\xa4N\xc0;Q\xc0'
p1814
tp1815
Rp1816
ag7
(g11
S'\xa3\xed\xa4N\xc0;Q\xc0'
p1817
tp1818
Rp1819
ag7
(g11
S'\xa3\xed\xa4N\xc0;Q\xc0'
p1820
tp1821
Rp1822
ag7
(g11
S'\xa3\xed\xa4N\xc0;Q\xc0'
p1823
tp1824
Rp1825
ag7
(g11
S'7\xf8\x97\xca\xcb;Q\xc0'
p1826
tp1827
Rp1828
ag7
(g11
S'\xb7\xeb\x97\xca\xcb;Q\xc0'
p1829
tp1830
Rp1831
ag7
(g11
S'\xf6d\x11@\xda;Q\xc0'
p1832
tp1833
Rp1834
ag7
(g11
S'\x13\xb7Vi\xe8;Q\xc0'
p1835
tp1836
Rp1837
ag7
(g11
S'\x17\x17\x89W\xff;Q\xc0'
p1838
tp1839
Rp1840
ag7
(g11
S'\x104\x94`$<Q\xc0'
p1841
tp1842
Rp1843
ag7
(g11
S'\x83D9f_<Q\xc0'
p1844
tp1845
Rp1846
ag7
(g11
S'\x9bx\xcco\xbb<Q\xc0'
p1847
tp1848
Rp1849
ag7
(g11
S'I\xa5\xae\xf8F=Q\xc0'
p1850
tp1851
Rp1852
ag7
(g11
S'eU\x0c\x9e\x13>Q\xc0'
p1853
tp1854
Rp1855
ag7
(g11
S'\xc47\x11\xf64?Q\xc0'
p1856
tp1857
Rp1858
ag7
(g11
S'\x98\xf8\x87\xc7\xbe@Q\xc0'
p1859
tp1860
Rp1861
ag7
(g11
S'\xe6}\xd6S\xc3BQ\xc0'
p1862
tp1863
Rp1864
ag7
(g11
S'\x1f\xcc<\xc9MEQ\xc0'
p1865
tp1866
Rp1867
ag7
(g11
S'\x99F\xa9\xc5mHQ\xc0'
p1868
tp1869
Rp1870
ag7
(g11
S'\x92\xa9a\x88/LQ\xc0'
p1871
tp1872
Rp1873
ag7
(g11
S'\x94\xbdx\xe1\x9ePQ\xc0'
p1874
tp1875
Rp1876
ag7
(g11
S'\xee:\xc3\x89\xd2UQ\xc0'
p1877
tp1878
Rp1879
ag7
(g11
S'\x16I\x8d\x9a\xd5[Q\xc0'
p1880
tp1881
Rp1882
ag7
(g11
S'\xa3\xad\xad=\xb2bQ\xc0'
p1883
tp1884
Rp1885
ag7
(g11
S'\xb3\xbb\xf6JjjQ\xc0'
p1886
tp1887
Rp1888
ag7
(g11
S'\xb9-\xf4\x04\x1bsQ\xc0'
p1889
tp1890
Rp1891
ag7
(g11
S'\xd8\xfbI/\xfc|Q\xc0'
p1892
tp1893
Rp1894
ag7
(g11
S'\x08S\xbb>)\x88Q\xc0'
p1895
tp1896
Rp1897
ag7
(g11
S'\x99**y\xf4\x94Q\xc0'
p1898
tp1899
Rp1900
ag7
(g11
S'\x16G=\x84y\xa2Q\xc0'
p1901
tp1902
Rp1903
ag7
(g11
S'\x9c]\xc4\xb3\x96\xb1Q\xc0'
p1904
tp1905
Rp1906
ag7
(g11
S'\x00\xe3\x92\xf9,\xc3Q\xc0'
p1907
tp1908
Rp1909
ag7
(g11
S'\xce(\x8d\xbew\xd7Q\xc0'
p1910
tp1911
Rp1912
ag7
(g11
S"X;\xf5\x1e'\xeaQ\xc0"
p1913
tp1914
Rp1915
ag7
(g11
S'\xb5\xa9\xedc\xc3\xfdQ\xc0'
p1916
tp1917
Rp1918
ag7
(g11
S',q\x08\xe7\xe4\x10R\xc0'
p1919
tp1920
Rp1921
ag7
(g11
S'NZ\xa6\xad*#R\xc0'
p1922
tp1923
Rp1924
ag7
(g11
S'\x1e\x89\xed5\xee3R\xc0'
p1925
tp1926
Rp1927
ag7
(g11
S'\xf0\x03\xa3\xd1\xc7BR\xc0'
p1928
tp1929
Rp1930
ag7
(g11
S'\xf8\xefR\x8f\x16OR\xc0'
p1931
tp1932
Rp1933
ag7
(g11
S'v\xba8\xd5\xe6XR\xc0'
p1934
tp1935
Rp1936
asS'theta'
p1937
(lp1938
I0
aF0.0
aF0.0
aF0.0
aF0.0
aF0.0
aF0.0
aF0.0
aF0.0
aF0.0
aF0.0
aF0.0
aF0.0
aF0.0
aF0.0
aF0.0
aF0.0
aF0.0
aF0.0
aF0.0
aF0.0
aF0.0
aF0.0
aF0.0
aF0.0
aF0.0
aF0.0
aF0.0
aF0.0
aF0.0
aF0.0
aF0.0
aF0.0
aF0.0
aF0.0
aF0.0
aF0.0
aF0.0
aF0.0
aF0.0
aF0.0
aF0.0
aF0.0
aF0.0
aF0.0
aF0.0
aF0.0
aF0.0
aF0.0
aF0.0
aF0.0
aF0.0
aF0.0
aF0.0
aF0.0
aF0.0
aF0.0
aF0.0
aF0.0
aF0.0
aF0.0
aF0.0
aF0.0
aF0.0
aF0.0
aF0.0
aF0.0
aF0.0
aF0.0
aF0.0
aF0.0
aF0.0
aF0.0
aF0.0
aF0.0
aF0.0
aF0.0
aF0.0
aF0.0
aF0.0
aF0.0
aF0.0
aF0.0
aF0.0
aF0.0
aF0.0
aF0.0
aF0.0
aF0.0
aF0.0
aF0.0
aF0.0
aF0.0
aF0.0
aF0.0
aF0.0
aF0.0
aF-7.70906682520722e-06
aF-7.70906679934316e-06
aF-7.70906679934316e-06
aF-7.70906679934316e-06
aF-7.70906679934316e-06
aF-7.70906679934316e-06
aF-7.70906679934316e-06
aF-7.70906679934316e-06
aF-7.70906679934316e-06
aF-7.70906679934316e-06
aF-7.70906679934316e-06
aF-7.70906679934316e-06
aF-7.70906679934316e-06
aF-7.70906679934316e-06
aF-7.70906679934316e-06
aF-7.70906679934316e-06
aF-7.70906679934316e-06
aF-7.70906679934316e-06
aF-7.70906679934316e-06
aF-0.0014753282523510465
aF-0.0014753282503823244
aF-0.0014753282502929454
aF-0.0014753282502929454
aF-0.0014753282503823244
aF-0.0014753282503823244
aF-0.0014753282503823244
aF-0.007222725887405266
aF-0.0072227255145491265
aF-0.014457257101433987
aF-0.02154112637549015
aF-0.03300802611565828
aF-0.0515189728680664
aF-0.0809953061795453
aF-0.12690127556670602
aF-0.1963621257246106
aF-0.29794222350683
aF-0.44097488567546034
aF-0.6345608858347389
aF-0.8866054910418391
aF-1.2010473099618622
aF-1.5834149404281022
aF-2.0369795755805677
aF-2.5641741609981112
aF-3.1717291190464936
aF-3.860205659950183
aF-4.629161103002813
aF-5.4741425903365855
aF-6.4019276471327595
aF-7.428742793152567
aF-8.55744129858256
aF-9.810493222577886
aF-11.093517708855135
aF-12.482588253012
aF-14.044764067387861
aF-15.782450159685713
aF-17.327611244458666
aF-18.898442236767753
aF-20.38538410153254
aF-21.767364370050025
aF-23.004978853443234
aF-24.078817203468954
aF-24.953746194870387
aF-25.642073939396436
asS'k'
p1939
g7
(g11
S'\xf0\xbf\n\x19\x03\x00|@'
p1940
tp1941
Rp1942
sS'sigma'
p1943
(lp1944
F400000000.0
aF400000000.00000006
aF400000000.00000006
aF400000000.00000006
aF400000000.00000006
aF400000000.00000006
aF400000000.00000006
aF400000000.00000006
aF400000000.00000006
aF400000000.00000006
aF400000000.00000006
aF400000000.00000006
aF400000000.00000006
aF400000000.00000006
aF400000000.00000006
aF400000000.00000006
aF400000000.00000006
aF400000000.00000006
aF400000000.00000006
aF400000000.00000006
aF400000000.00000006
aF400000000.00000006
aF400000000.00000006
aF400000000.00000006
aF400000000.00000006
aF400000000.00000006
aF400000000.00000006
aF400000000.00000006
aF400000000.00000006
aF400000000.00000006
aF400000000.00000006
aF400000000.00000006
aF400000000.00000006
aF400000000.00000006
aF400000000.00000006
aF400000000.00000006
aF400000000.00000006
aF400000000.00000006
aF400000000.00000006
aF400000000.00000006
aF400000000.00000006
aF400000000.00000006
aF400000000.00000006
aF400000000.00000006
aF400000000.00000006
aF400000000.00000006
aF400000000.00000006
aF400000000.00000006
aF400000000.00000006
aF400000000.00000006
aF400000000.00000006
aF400000000.00000006
aF400000000.00000006
aF400000000.00000006
aF400000000.00000006
aF400000000.00000006
aF400000000.00000006
aF400000000.00000006
aF400000000.00000006
aF400000000.00000006
aF400000000.00000006
aF400000000.00000006
aF400000000.00000006
aF400000000.00000006
aF400000000.00000006
aF400000000.00000006
aF400000000.00000006
aF400000000.00000006
aF400000000.00000006
aF400000000.00000006
aF400000000.00000006
aF400000000.00000006
aF400000000.00000006
aF400000000.00000006
aF400000000.00000006
aF400000000.00000006
aF400000000.00000006
aF400000000.00000006
aF400000000.00000006
aF400000000.00000006
aF400000000.00000006
aF400000000.00000006
aF400000000.00000006
aF400000000.00000006
aF400000000.00000006
aF400000000.00000006
aF400000000.00000006
aF400000000.00000006
aF400000000.00000006
aF400000000.00000006
aF400000000.00000006
aF400000000.00000006
aF400000000.00000006
aF400000000.00000006
aF400000000.00000006
aF400000000.00000006
aF400000000.00000006
aF400000069.74510187
aF400000069.7451023
aF400000069.74510145
aF400000069.74510145
aF400000069.74510145
aF400000069.74510145
aF400000069.74510145
aF400000069.74510145
aF400000069.74510145
aF400000069.74510145
aF400000069.74510145
aF400000069.74510145
aF400000069.74510145
aF400000069.74510145
aF400000069.74510145
aF400000069.74510145
aF400000069.74510145
aF400000069.74510145
aF400000069.74510145
aF400013346.01760197
aF400013346.0176961
aF400013346.0176969
aF400013346.01769525
aF400013346.0176965
aF400013346.0176965
aF400013346.0176965
aF400065308.9734926
aF400065308.9908758
aF400130652.27285856
aF400194564.6728884
aF400297875.1586779
aF400464267.21492624
aF400728258.14149225
aF401137045.9533597
aF401750218.6634801
aF402635500.40593743
aF403859638.9388537
aF405476208.2495622
aF407514903.0867235
aF410005012.4446891
aF412897736.985732
aF416147359.98552895
aF419700905.9316556
aF423471505.21785533
aF427424146.70266545
aF431524583.7575292
aF435755467.49460196
aF440041331.92135406
aF444276308.96331227
aF448421147.68861437
aF452353103.7214269
aF456385901.50877166
aF460157950.0771271
aF463340680.6725459
aF465788433.18919855
aF468738351.2067854
aF471191643.0775501
aF473395845.98275095
aF475247560.1818714
aF476748075.79008716
aF477839264.9070706
aF478713394.803573
aF479380366.0418258
asS'eps_t'
p1945
(lp1946
F0.04680008287999369
aF0.04680008287999369
aF0.04680008287999369
aF0.04680008287999369
aF0.04680008287999369
aF0.04680008287999369
aF0.04680008287999369
aF0.04680008287999369
aF0.04680008287999369
aF0.04680008287999369
aF0.04680008287999369
aF0.04680008287999369
aF0.04680008287999369
aF0.04680008287999369
aF0.04680008287999369
aF0.04680008287999369
aF0.04680008287999369
aF0.04680008287999369
aF0.04680008287999369
aF0.04680008287999369
aF0.04680008287999369
aF0.04680008287999369
aF0.04680008287999369
aF0.04680008287999369
aF0.04680008287999369
aF0.04680008287999369
aF0.04680008287999369
aF0.04680008287999369
aF0.04680008287999369
aF0.04680008287999369
aF0.04680008287999369
aF0.04680008287999369
aF0.04680008287999369
aF0.04680008287999369
aF0.04680008287999369
aF0.04680008287999369
aF0.04680008287999369
aF0.04680008287999369
aF0.04680008287999369
aF0.04680008287999369
aF0.04680008287999369
aF0.04680008287999369
aF0.04680008287999369
aF0.04680008287999369
aF0.04680008287999369
aF0.04680008287999369
aF0.04680008287999369
aF0.04680008287999369
aF0.04680008287999369
aF0.04680008287999369
aF0.04680008287999369
aF0.04680008287999369
aF0.04680008287999369
aF0.04680008287999369
aF0.04680008287999369
aF0.04680008287999369
aF0.04680008287999369
aF0.04680008287999369
aF0.04680008287999369
aF0.04680008287999369
aF0.04680008287999369
aF0.04680008287999369
aF0.04680008287999369
aF0.04680008287999369
aF0.04680008287999369
aF0.04680008287999369
aF0.04680008287999369
aF0.04680008287999369
aF0.04680008287999369
aF0.04680008287999369
aF0.04680008287999369
aF0.04680008287999369
aF0.04680008287999369
aF0.04680008287999369
aF0.04680008287999369
aF0.04680008287999369
aF0.04680008287999369
aF0.04680008287999369
aF0.04680008287999369
aF0.04680008287999369
aF0.04680008287999369
aF0.04680008287999369
aF0.04680008287999369
aF0.04680008287999369
aF0.04680008287999369
aF0.04680008287999369
aF0.04680008287999369
aF0.04680008287999369
aF0.04680008287999369
aF0.04680008287999369
aF0.04680008287999369
aF0.04680008287999369
aF0.04680008287999369
aF0.04680008287999369
aF0.04680008287999369
aF0.04680008287999369
aF0.04680008287999369
aF0.04680007573281438
aF0.04680007573281438
aF0.04680007573281438
aF0.04680007573281438
aF0.04680007573281438
aF0.04680007573281438
aF0.04680007573281438
aF0.04680007573281438
aF0.04680007573281438
aF0.04680007573281438
aF0.04680007573281438
aF0.04680007573281438
aF0.04680007573281438
aF0.04680007573281438
aF0.04680007573281438
aF0.04680007573281438
aF0.04680007573281438
aF0.04680007573281438
aF0.04680007573281438
aF0.04679871503724961
aF0.04679871503724961
aF0.04679871503724961
aF0.04679871503724961
aF0.04679871503724961
aF0.04679871503724961
aF0.04679871503724961
aF0.04679338548340834
aF0.04679338548340834
aF0.04678667490977679
aF0.04678010192138283
aF0.04676945745585051
aF0.04675226228042971
aF0.046724850784043113
aF0.04668208596631123
aF0.04661720419311137
aF0.04652194016817063
aF0.046387025074077125
aF0.0462029558132277
aF0.04596071430060492
aF0.04565354358330634
aF0.04527353064301551
aF0.04481335444578616
aF0.04426525743256335
aF0.04361644919202505
aF0.04285737154038152
aF0.04197818003776134
aF0.04097214471664228
aF0.03981992967305945
aF0.03848792965608459
aF0.03695331385228566
aF0.03516416547485274
aF0.033227068275006336
aF0.03102033014418856
aF0.028408444974905325
aF0.025338304069964714
aF0.022434307966627067
aF0.019336496910690764
aF0.016263172097226466
aF0.013286110534424371
aF0.01052183391355156
aF0.008050049037490908
aF0.005983827069460302
aF0.004325592970776859
as.