(i__main__
DOE
p0
(dp1
S'runs'
p2
I256
sS'variables'
p3
(lp4
(dp5
S'upper'
p6
F0.25
sS'lower'
p7
F0.125
sS'levels'
p8
I2
sS'type'
p9
c__builtin__
float
p10
sS'name'
p11
S'xs-'
p12
sa(dp13
g6
F-0.0
sg7
F-0.9
sg8
I2
sg9
g10
sg11
S'ys-'
p14
sa(dp15
g6
F0.5866250000000001
sg7
F0.280875
sg8
I2
sg9
g10
sg11
S'xs+'
p16
sa(dp17
g6
F0.9
sg7
F0.0
sg8
I2
sg9
g10
sg11
S'ys+'
p18
sa(dp19
g6
F0.25
sg7
F0.125
sg8
I2
sg9
g10
sg11
S'xl-'
p20
sa(dp21
g6
F0.9
sg7
F-0.9
sg8
I2
sg9
g10
sg11
S'yl-'
p22
sa(dp23
g6
F0.5866250000000001
sg7
F0.280875
sg8
I2
sg9
g10
sg11
S'xl+'
p24
sa(dp25
g6
F0.9
sg7
F-0.9
sg8
I2
sg9
g10
sg11
S'yl+'
p26
sasS'driver'
p27
S'Full Factorial'
p28
sS'domain'
p29
(dp30
g18
(lp31
F0.0
aF0.0
aF0.0
aF0.0
aF0.0
aF0.0
aF0.0
aF0.0
aF0.0
aF0.0
aF0.0
aF0.0
aF0.0
aF0.0
aF0.0
aF0.0
aF0.9
aF0.9
aF0.9
aF0.9
aF0.9
aF0.9
aF0.9
aF0.9
aF0.9
aF0.9
aF0.9
aF0.9
aF0.9
aF0.9
aF0.9
aF0.9
aF0.0
aF0.0
aF0.0
aF0.0
aF0.0
aF0.0
aF0.0
aF0.0
aF0.0
aF0.0
aF0.0
aF0.0
aF0.0
aF0.0
aF0.0
aF0.0
aF0.9
aF0.9
aF0.9
aF0.9
aF0.9
aF0.9
aF0.9
aF0.9
aF0.9
aF0.9
aF0.9
aF0.9
aF0.9
aF0.9
aF0.9
aF0.9
aF0.0
aF0.0
aF0.0
aF0.0
aF0.0
aF0.0
aF0.0
aF0.0
aF0.0
aF0.0
aF0.0
aF0.0
aF0.0
aF0.0
aF0.0
aF0.0
aF0.9
aF0.9
aF0.9
aF0.9
aF0.9
aF0.9
aF0.9
aF0.9
aF0.9
aF0.9
aF0.9
aF0.9
aF0.9
aF0.9
aF0.9
aF0.9
aF0.0
aF0.0
aF0.0
aF0.0
aF0.0
aF0.0
aF0.0
aF0.0
aF0.0
aF0.0
aF0.0
aF0.0
aF0.0
aF0.0
aF0.0
aF0.0
aF0.9
aF0.9
aF0.9
aF0.9
aF0.9
aF0.9
aF0.9
aF0.9
aF0.9
aF0.9
aF0.9
aF0.9
aF0.9
aF0.9
aF0.9
aF0.9
aF0.0
aF0.0
aF0.0
aF0.0
aF0.0
aF0.0
aF0.0
aF0.0
aF0.0
aF0.0
aF0.0
aF0.0
aF0.0
aF0.0
aF0.0
aF0.0
aF0.9
aF0.9
aF0.9
aF0.9
aF0.9
aF0.9
aF0.9
aF0.9
aF0.9
aF0.9
aF0.9
aF0.9
aF0.9
aF0.9
aF0.9
aF0.9
aF0.0
aF0.0
aF0.0
aF0.0
aF0.0
aF0.0
aF0.0
aF0.0
aF0.0
aF0.0
aF0.0
aF0.0
aF0.0
aF0.0
aF0.0
aF0.0
aF0.9
aF0.9
aF0.9
aF0.9
aF0.9
aF0.9
aF0.9
aF0.9
aF0.9
aF0.9
aF0.9
aF0.9
aF0.9
aF0.9
aF0.9
aF0.9
aF0.0
aF0.0
aF0.0
aF0.0
aF0.0
aF0.0
aF0.0
aF0.0
aF0.0
aF0.0
aF0.0
aF0.0
aF0.0
aF0.0
aF0.0
aF0.0
aF0.9
aF0.9
aF0.9
aF0.9
aF0.9
aF0.9
aF0.9
aF0.9
aF0.9
aF0.9
aF0.9
aF0.9
aF0.9
aF0.9
aF0.9
aF0.9
aF0.0
aF0.0
aF0.0
aF0.0
aF0.0
aF0.0
aF0.0
aF0.0
aF0.0
aF0.0
aF0.0
aF0.0
aF0.0
aF0.0
aF0.0
aF0.0
aF0.9
aF0.9
aF0.9
aF0.9
aF0.9
aF0.9
aF0.9
aF0.9
aF0.9
aF0.9
aF0.9
aF0.9
aF0.9
aF0.9
aF0.9
aF0.9
asg20
(lp32
F0.125
aF0.125
aF0.125
aF0.125
aF0.125
aF0.125
aF0.125
aF0.125
aF0.25
aF0.25
aF0.25
aF0.25
aF0.25
aF0.25
aF0.25
aF0.25
aF0.125
aF0.125
aF0.125
aF0.125
aF0.125
aF0.125
aF0.125
aF0.125
aF0.25
aF0.25
aF0.25
aF0.25
aF0.25
aF0.25
aF0.25
aF0.25
aF0.125
aF0.125
aF0.125
aF0.125
aF0.125
aF0.125
aF0.125
aF0.125
aF0.25
aF0.25
aF0.25
aF0.25
aF0.25
aF0.25
aF0.25
aF0.25
aF0.125
aF0.125
aF0.125
aF0.125
aF0.125
aF0.125
aF0.125
aF0.125
aF0.25
aF0.25
aF0.25
aF0.25
aF0.25
aF0.25
aF0.25
aF0.25
aF0.125
aF0.125
aF0.125
aF0.125
aF0.125
aF0.125
aF0.125
aF0.125
aF0.25
aF0.25
aF0.25
aF0.25
aF0.25
aF0.25
aF0.25
aF0.25
aF0.125
aF0.125
aF0.125
aF0.125
aF0.125
aF0.125
aF0.125
aF0.125
aF0.25
aF0.25
aF0.25
aF0.25
aF0.25
aF0.25
aF0.25
aF0.25
aF0.125
aF0.125
aF0.125
aF0.125
aF0.125
aF0.125
aF0.125
aF0.125
aF0.25
aF0.25
aF0.25
aF0.25
aF0.25
aF0.25
aF0.25
aF0.25
aF0.125
aF0.125
aF0.125
aF0.125
aF0.125
aF0.125
aF0.125
aF0.125
aF0.25
aF0.25
aF0.25
aF0.25
aF0.25
aF0.25
aF0.25
aF0.25
aF0.125
aF0.125
aF0.125
aF0.125
aF0.125
aF0.125
aF0.125
aF0.125
aF0.25
aF0.25
aF0.25
aF0.25
aF0.25
aF0.25
aF0.25
aF0.25
aF0.125
aF0.125
aF0.125
aF0.125
aF0.125
aF0.125
aF0.125
aF0.125
aF0.25
aF0.25
aF0.25
aF0.25
aF0.25
aF0.25
aF0.25
aF0.25
aF0.125
aF0.125
aF0.125
aF0.125
aF0.125
aF0.125
aF0.125
aF0.125
aF0.25
aF0.25
aF0.25
aF0.25
aF0.25
aF0.25
aF0.25
aF0.25
aF0.125
aF0.125
aF0.125
aF0.125
aF0.125
aF0.125
aF0.125
aF0.125
aF0.25
aF0.25
aF0.25
aF0.25
aF0.25
aF0.25
aF0.25
aF0.25
aF0.125
aF0.125
aF0.125
aF0.125
aF0.125
aF0.125
aF0.125
aF0.125
aF0.25
aF0.25
aF0.25
aF0.25
aF0.25
aF0.25
aF0.25
aF0.25
aF0.125
aF0.125
aF0.125
aF0.125
aF0.125
aF0.125
aF0.125
aF0.125
aF0.25
aF0.25
aF0.25
aF0.25
aF0.25
aF0.25
aF0.25
aF0.25
aF0.125
aF0.125
aF0.125
aF0.125
aF0.125
aF0.125
aF0.125
aF0.125
aF0.25
aF0.25
aF0.25
aF0.25
aF0.25
aF0.25
aF0.25
aF0.25
aF0.125
aF0.125
aF0.125
aF0.125
aF0.125
aF0.125
aF0.125
aF0.125
aF0.25
aF0.25
aF0.25
aF0.25
aF0.25
aF0.25
aF0.25
aF0.25
asg24
(lp33
F0.280875
aF0.280875
aF0.5866250000000001
aF0.5866250000000001
aF0.280875
aF0.280875
aF0.5866250000000001
aF0.5866250000000001
aF0.280875
aF0.280875
aF0.5866250000000001
aF0.5866250000000001
aF0.280875
aF0.280875
aF0.5866250000000001
aF0.5866250000000001
aF0.280875
aF0.280875
aF0.5866250000000001
aF0.5866250000000001
aF0.280875
aF0.280875
aF0.5866250000000001
aF0.5866250000000001
aF0.280875
aF0.280875
aF0.5866250000000001
aF0.5866250000000001
aF0.280875
aF0.280875
aF0.5866250000000001
aF0.5866250000000001
aF0.280875
aF0.280875
aF0.5866250000000001
aF0.5866250000000001
aF0.280875
aF0.280875
aF0.5866250000000001
aF0.5866250000000001
aF0.280875
aF0.280875
aF0.5866250000000001
aF0.5866250000000001
aF0.280875
aF0.280875
aF0.5866250000000001
aF0.5866250000000001
aF0.280875
aF0.280875
aF0.5866250000000001
aF0.5866250000000001
aF0.280875
aF0.280875
aF0.5866250000000001
aF0.5866250000000001
aF0.280875
aF0.280875
aF0.5866250000000001
aF0.5866250000000001
aF0.280875
aF0.280875
aF0.5866250000000001
aF0.5866250000000001
aF0.280875
aF0.280875
aF0.5866250000000001
aF0.5866250000000001
aF0.280875
aF0.280875
aF0.5866250000000001
aF0.5866250000000001
aF0.280875
aF0.280875
aF0.5866250000000001
aF0.5866250000000001
aF0.280875
aF0.280875
aF0.5866250000000001
aF0.5866250000000001
aF0.280875
aF0.280875
aF0.5866250000000001
aF0.5866250000000001
aF0.280875
aF0.280875
aF0.5866250000000001
aF0.5866250000000001
aF0.280875
aF0.280875
aF0.5866250000000001
aF0.5866250000000001
aF0.280875
aF0.280875
aF0.5866250000000001
aF0.5866250000000001
aF0.280875
aF0.280875
aF0.5866250000000001
aF0.5866250000000001
aF0.280875
aF0.280875
aF0.5866250000000001
aF0.5866250000000001
aF0.280875
aF0.280875
aF0.5866250000000001
aF0.5866250000000001
aF0.280875
aF0.280875
aF0.5866250000000001
aF0.5866250000000001
aF0.280875
aF0.280875
aF0.5866250000000001
aF0.5866250000000001
aF0.280875
aF0.280875
aF0.5866250000000001
aF0.5866250000000001
aF0.280875
aF0.280875
aF0.5866250000000001
aF0.5866250000000001
aF0.280875
aF0.280875
aF0.5866250000000001
aF0.5866250000000001
aF0.280875
aF0.280875
aF0.5866250000000001
aF0.5866250000000001
aF0.280875
aF0.280875
aF0.5866250000000001
aF0.5866250000000001
aF0.280875
aF0.280875
aF0.5866250000000001
aF0.5866250000000001
aF0.280875
aF0.280875
aF0.5866250000000001
aF0.5866250000000001
aF0.280875
aF0.280875
aF0.5866250000000001
aF0.5866250000000001
aF0.280875
aF0.280875
aF0.5866250000000001
aF0.5866250000000001
aF0.280875
aF0.280875
aF0.5866250000000001
aF0.5866250000000001
aF0.280875
aF0.280875
aF0.5866250000000001
aF0.5866250000000001
aF0.280875
aF0.280875
aF0.5866250000000001
aF0.5866250000000001
aF0.280875
aF0.280875
aF0.5866250000000001
aF0.5866250000000001
aF0.280875
aF0.280875
aF0.5866250000000001
aF0.5866250000000001
aF0.280875
aF0.280875
aF0.5866250000000001
aF0.5866250000000001
aF0.280875
aF0.280875
aF0.5866250000000001
aF0.5866250000000001
aF0.280875
aF0.280875
aF0.5866250000000001
aF0.5866250000000001
aF0.280875
aF0.280875
aF0.5866250000000001
aF0.5866250000000001
aF0.280875
aF0.280875
aF0.5866250000000001
aF0.5866250000000001
aF0.280875
aF0.280875
aF0.5866250000000001
aF0.5866250000000001
aF0.280875
aF0.280875
aF0.5866250000000001
aF0.5866250000000001
aF0.280875
aF0.280875
aF0.5866250000000001
aF0.5866250000000001
aF0.280875
aF0.280875
aF0.5866250000000001
aF0.5866250000000001
aF0.280875
aF0.280875
aF0.5866250000000001
aF0.5866250000000001
aF0.280875
aF0.280875
aF0.5866250000000001
aF0.5866250000000001
aF0.280875
aF0.280875
aF0.5866250000000001
aF0.5866250000000001
aF0.280875
aF0.280875
aF0.5866250000000001
aF0.5866250000000001
aF0.280875
aF0.280875
aF0.5866250000000001
aF0.5866250000000001
aF0.280875
aF0.280875
aF0.5866250000000001
aF0.5866250000000001
aF0.280875
aF0.280875
aF0.5866250000000001
aF0.5866250000000001
aF0.280875
aF0.280875
aF0.5866250000000001
aF0.5866250000000001
aF0.280875
aF0.280875
aF0.5866250000000001
aF0.5866250000000001
aF0.280875
aF0.280875
aF0.5866250000000001
aF0.5866250000000001
aF0.280875
aF0.280875
aF0.5866250000000001
aF0.5866250000000001
aF0.280875
aF0.280875
aF0.5866250000000001
aF0.5866250000000001
asg14
(lp34
F-0.9
aF-0.9
aF-0.9
aF-0.9
aF-0.9
aF-0.9
aF-0.9
aF-0.9
aF-0.9
aF-0.9
aF-0.9
aF-0.9
aF-0.9
aF-0.9
aF-0.9
aF-0.9
aF-0.9
aF-0.9
aF-0.9
aF-0.9
aF-0.9
aF-0.9
aF-0.9
aF-0.9
aF-0.9
aF-0.9
aF-0.9
aF-0.9
aF-0.9
aF-0.9
aF-0.9
aF-0.9
aF-0.9
aF-0.9
aF-0.9
aF-0.9
aF-0.9
aF-0.9
aF-0.9
aF-0.9
aF-0.9
aF-0.9
aF-0.9
aF-0.9
aF-0.9
aF-0.9
aF-0.9
aF-0.9
aF-0.9
aF-0.9
aF-0.9
aF-0.9
aF-0.9
aF-0.9
aF-0.9
aF-0.9
aF-0.9
aF-0.9
aF-0.9
aF-0.9
aF-0.9
aF-0.9
aF-0.9
aF-0.9
aF0.0
aF0.0
aF0.0
aF0.0
aF0.0
aF0.0
aF0.0
aF0.0
aF0.0
aF0.0
aF0.0
aF0.0
aF0.0
aF0.0
aF0.0
aF0.0
aF0.0
aF0.0
aF0.0
aF0.0
aF0.0
aF0.0
aF0.0
aF0.0
aF0.0
aF0.0
aF0.0
aF0.0
aF0.0
aF0.0
aF0.0
aF0.0
aF0.0
aF0.0
aF0.0
aF0.0
aF0.0
aF0.0
aF0.0
aF0.0
aF0.0
aF0.0
aF0.0
aF0.0
aF0.0
aF0.0
aF0.0
aF0.0
aF0.0
aF0.0
aF0.0
aF0.0
aF0.0
aF0.0
aF0.0
aF0.0
aF0.0
aF0.0
aF0.0
aF0.0
aF0.0
aF0.0
aF0.0
aF0.0
aF-0.9
aF-0.9
aF-0.9
aF-0.9
aF-0.9
aF-0.9
aF-0.9
aF-0.9
aF-0.9
aF-0.9
aF-0.9
aF-0.9
aF-0.9
aF-0.9
aF-0.9
aF-0.9
aF-0.9
aF-0.9
aF-0.9
aF-0.9
aF-0.9
aF-0.9
aF-0.9
aF-0.9
aF-0.9
aF-0.9
aF-0.9
aF-0.9
aF-0.9
aF-0.9
aF-0.9
aF-0.9
aF-0.9
aF-0.9
aF-0.9
aF-0.9
aF-0.9
aF-0.9
aF-0.9
aF-0.9
aF-0.9
aF-0.9
aF-0.9
aF-0.9
aF-0.9
aF-0.9
aF-0.9
aF-0.9
aF-0.9
aF-0.9
aF-0.9
aF-0.9
aF-0.9
aF-0.9
aF-0.9
aF-0.9
aF-0.9
aF-0.9
aF-0.9
aF-0.9
aF-0.9
aF-0.9
aF-0.9
aF-0.9
aF0.0
aF0.0
aF0.0
aF0.0
aF0.0
aF0.0
aF0.0
aF0.0
aF0.0
aF0.0
aF0.0
aF0.0
aF0.0
aF0.0
aF0.0
aF0.0
aF0.0
aF0.0
aF0.0
aF0.0
aF0.0
aF0.0
aF0.0
aF0.0
aF0.0
aF0.0
aF0.0
aF0.0
aF0.0
aF0.0
aF0.0
aF0.0
aF0.0
aF0.0
aF0.0
aF0.0
aF0.0
aF0.0
aF0.0
aF0.0
aF0.0
aF0.0
aF0.0
aF0.0
aF0.0
aF0.0
aF0.0
aF0.0
aF0.0
aF0.0
aF0.0
aF0.0
aF0.0
aF0.0
aF0.0
aF0.0
aF0.0
aF0.0
aF0.0
aF0.0
aF0.0
aF0.0
aF0.0
aF0.0
asg16
(lp35
F0.280875
aF0.280875
aF0.280875
aF0.280875
aF0.280875
aF0.280875
aF0.280875
aF0.280875
aF0.280875
aF0.280875
aF0.280875
aF0.280875
aF0.280875
aF0.280875
aF0.280875
aF0.280875
aF0.280875
aF0.280875
aF0.280875
aF0.280875
aF0.280875
aF0.280875
aF0.280875
aF0.280875
aF0.280875
aF0.280875
aF0.280875
aF0.280875
aF0.280875
aF0.280875
aF0.280875
aF0.280875
aF0.5866250000000001
aF0.5866250000000001
aF0.5866250000000001
aF0.5866250000000001
aF0.5866250000000001
aF0.5866250000000001
aF0.5866250000000001
aF0.5866250000000001
aF0.5866250000000001
aF0.5866250000000001
aF0.5866250000000001
aF0.5866250000000001
aF0.5866250000000001
aF0.5866250000000001
aF0.5866250000000001
aF0.5866250000000001
aF0.5866250000000001
aF0.5866250000000001
aF0.5866250000000001
aF0.5866250000000001
aF0.5866250000000001
aF0.5866250000000001
aF0.5866250000000001
aF0.5866250000000001
aF0.5866250000000001
aF0.5866250000000001
aF0.5866250000000001
aF0.5866250000000001
aF0.5866250000000001
aF0.5866250000000001
aF0.5866250000000001
aF0.5866250000000001
aF0.280875
aF0.280875
aF0.280875
aF0.280875
aF0.280875
aF0.280875
aF0.280875
aF0.280875
aF0.280875
aF0.280875
aF0.280875
aF0.280875
aF0.280875
aF0.280875
aF0.280875
aF0.280875
aF0.280875
aF0.280875
aF0.280875
aF0.280875
aF0.280875
aF0.280875
aF0.280875
aF0.280875
aF0.280875
aF0.280875
aF0.280875
aF0.280875
aF0.280875
aF0.280875
aF0.280875
aF0.280875
aF0.5866250000000001
aF0.5866250000000001
aF0.5866250000000001
aF0.5866250000000001
aF0.5866250000000001
aF0.5866250000000001
aF0.5866250000000001
aF0.5866250000000001
aF0.5866250000000001
aF0.5866250000000001
aF0.5866250000000001
aF0.5866250000000001
aF0.5866250000000001
aF0.5866250000000001
aF0.5866250000000001
aF0.5866250000000001
aF0.5866250000000001
aF0.5866250000000001
aF0.5866250000000001
aF0.5866250000000001
aF0.5866250000000001
aF0.5866250000000001
aF0.5866250000000001
aF0.5866250000000001
aF0.5866250000000001
aF0.5866250000000001
aF0.5866250000000001
aF0.5866250000000001
aF0.5866250000000001
aF0.5866250000000001
aF0.5866250000000001
aF0.5866250000000001
aF0.280875
aF0.280875
aF0.280875
aF0.280875
aF0.280875
aF0.280875
aF0.280875
aF0.280875
aF0.280875
aF0.280875
aF0.280875
aF0.280875
aF0.280875
aF0.280875
aF0.280875
aF0.280875
aF0.280875
aF0.280875
aF0.280875
aF0.280875
aF0.280875
aF0.280875
aF0.280875
aF0.280875
aF0.280875
aF0.280875
aF0.280875
aF0.280875
aF0.280875
aF0.280875
aF0.280875
aF0.280875
aF0.5866250000000001
aF0.5866250000000001
aF0.5866250000000001
aF0.5866250000000001
aF0.5866250000000001
aF0.5866250000000001
aF0.5866250000000001
aF0.5866250000000001
aF0.5866250000000001
aF0.5866250000000001
aF0.5866250000000001
aF0.5866250000000001
aF0.5866250000000001
aF0.5866250000000001
aF0.5866250000000001
aF0.5866250000000001
aF0.5866250000000001
aF0.5866250000000001
aF0.5866250000000001
aF0.5866250000000001
aF0.5866250000000001
aF0.5866250000000001
aF0.5866250000000001
aF0.5866250000000001
aF0.5866250000000001
aF0.5866250000000001
aF0.5866250000000001
aF0.5866250000000001
aF0.5866250000000001
aF0.5866250000000001
aF0.5866250000000001
aF0.5866250000000001
aF0.280875
aF0.280875
aF0.280875
aF0.280875
aF0.280875
aF0.280875
aF0.280875
aF0.280875
aF0.280875
aF0.280875
aF0.280875
aF0.280875
aF0.280875
aF0.280875
aF0.280875
aF0.280875
aF0.280875
aF0.280875
aF0.280875
aF0.280875
aF0.280875
aF0.280875
aF0.280875
aF0.280875
aF0.280875
aF0.280875
aF0.280875
aF0.280875
aF0.280875
aF0.280875
aF0.280875
aF0.280875
aF0.5866250000000001
aF0.5866250000000001
aF0.5866250000000001
aF0.5866250000000001
aF0.5866250000000001
aF0.5866250000000001
aF0.5866250000000001
aF0.5866250000000001
aF0.5866250000000001
aF0.5866250000000001
aF0.5866250000000001
aF0.5866250000000001
aF0.5866250000000001
aF0.5866250000000001
aF0.5866250000000001
aF0.5866250000000001
aF0.5866250000000001
aF0.5866250000000001
aF0.5866250000000001
aF0.5866250000000001
aF0.5866250000000001
aF0.5866250000000001
aF0.5866250000000001
aF0.5866250000000001
aF0.5866250000000001
aF0.5866250000000001
aF0.5866250000000001
aF0.5866250000000001
aF0.5866250000000001
aF0.5866250000000001
aF0.5866250000000001
aF0.5866250000000001
asg22
(lp36
F-0.9
aF-0.9
aF-0.9
aF-0.9
aF0.9
aF0.9
aF0.9
aF0.9
aF-0.9
aF-0.9
aF-0.9
aF-0.9
aF0.9
aF0.9
aF0.9
aF0.9
aF-0.9
aF-0.9
aF-0.9
aF-0.9
aF0.9
aF0.9
aF0.9
aF0.9
aF-0.9
aF-0.9
aF-0.9
aF-0.9
aF0.9
aF0.9
aF0.9
aF0.9
aF-0.9
aF-0.9
aF-0.9
aF-0.9
aF0.9
aF0.9
aF0.9
aF0.9
aF-0.9
aF-0.9
aF-0.9
aF-0.9
aF0.9
aF0.9
aF0.9
aF0.9
aF-0.9
aF-0.9
aF-0.9
aF-0.9
aF0.9
aF0.9
aF0.9
aF0.9
aF-0.9
aF-0.9
aF-0.9
aF-0.9
aF0.9
aF0.9
aF0.9
aF0.9
aF-0.9
aF-0.9
aF-0.9
aF-0.9
aF0.9
aF0.9
aF0.9
aF0.9
aF-0.9
aF-0.9
aF-0.9
aF-0.9
aF0.9
aF0.9
aF0.9
aF0.9
aF-0.9
aF-0.9
aF-0.9
aF-0.9
aF0.9
aF0.9
aF0.9
aF0.9
aF-0.9
aF-0.9
aF-0.9
aF-0.9
aF0.9
aF0.9
aF0.9
aF0.9
aF-0.9
aF-0.9
aF-0.9
aF-0.9
aF0.9
aF0.9
aF0.9
aF0.9
aF-0.9
aF-0.9
aF-0.9
aF-0.9
aF0.9
aF0.9
aF0.9
aF0.9
aF-0.9
aF-0.9
aF-0.9
aF-0.9
aF0.9
aF0.9
aF0.9
aF0.9
aF-0.9
aF-0.9
aF-0.9
aF-0.9
aF0.9
aF0.9
aF0.9
aF0.9
aF-0.9
aF-0.9
aF-0.9
aF-0.9
aF0.9
aF0.9
aF0.9
aF0.9
aF-0.9
aF-0.9
aF-0.9
aF-0.9
aF0.9
aF0.9
aF0.9
aF0.9
aF-0.9
aF-0.9
aF-0.9
aF-0.9
aF0.9
aF0.9
aF0.9
aF0.9
aF-0.9
aF-0.9
aF-0.9
aF-0.9
aF0.9
aF0.9
aF0.9
aF0.9
aF-0.9
aF-0.9
aF-0.9
aF-0.9
aF0.9
aF0.9
aF0.9
aF0.9
aF-0.9
aF-0.9
aF-0.9
aF-0.9
aF0.9
aF0.9
aF0.9
aF0.9
aF-0.9
aF-0.9
aF-0.9
aF-0.9
aF0.9
aF0.9
aF0.9
aF0.9
aF-0.9
aF-0.9
aF-0.9
aF-0.9
aF0.9
aF0.9
aF0.9
aF0.9
aF-0.9
aF-0.9
aF-0.9
aF-0.9
aF0.9
aF0.9
aF0.9
aF0.9
aF-0.9
aF-0.9
aF-0.9
aF-0.9
aF0.9
aF0.9
aF0.9
aF0.9
aF-0.9
aF-0.9
aF-0.9
aF-0.9
aF0.9
aF0.9
aF0.9
aF0.9
aF-0.9
aF-0.9
aF-0.9
aF-0.9
aF0.9
aF0.9
aF0.9
aF0.9
aF-0.9
aF-0.9
aF-0.9
aF-0.9
aF0.9
aF0.9
aF0.9
aF0.9
aF-0.9
aF-0.9
aF-0.9
aF-0.9
aF0.9
aF0.9
aF0.9
aF0.9
aF-0.9
aF-0.9
aF-0.9
aF-0.9
aF0.9
aF0.9
aF0.9
aF0.9
aF-0.9
aF-0.9
aF-0.9
aF-0.9
aF0.9
aF0.9
aF0.9
aF0.9
asg26
(lp37
F-0.9
aF0.9
aF-0.9
aF0.9
aF-0.9
aF0.9
aF-0.9
aF0.9
aF-0.9
aF0.9
aF-0.9
aF0.9
aF-0.9
aF0.9
aF-0.9
aF0.9
aF-0.9
aF0.9
aF-0.9
aF0.9
aF-0.9
aF0.9
aF-0.9
aF0.9
aF-0.9
aF0.9
aF-0.9
aF0.9
aF-0.9
aF0.9
aF-0.9
aF0.9
aF-0.9
aF0.9
aF-0.9
aF0.9
aF-0.9
aF0.9
aF-0.9
aF0.9
aF-0.9
aF0.9
aF-0.9
aF0.9
aF-0.9
aF0.9
aF-0.9
aF0.9
aF-0.9
aF0.9
aF-0.9
aF0.9
aF-0.9
aF0.9
aF-0.9
aF0.9
aF-0.9
aF0.9
aF-0.9
aF0.9
aF-0.9
aF0.9
aF-0.9
aF0.9
aF-0.9
aF0.9
aF-0.9
aF0.9
aF-0.9
aF0.9
aF-0.9
aF0.9
aF-0.9
aF0.9
aF-0.9
aF0.9
aF-0.9
aF0.9
aF-0.9
aF0.9
aF-0.9
aF0.9
aF-0.9
aF0.9
aF-0.9
aF0.9
aF-0.9
aF0.9
aF-0.9
aF0.9
aF-0.9
aF0.9
aF-0.9
aF0.9
aF-0.9
aF0.9
aF-0.9
aF0.9
aF-0.9
aF0.9
aF-0.9
aF0.9
aF-0.9
aF0.9
aF-0.9
aF0.9
aF-0.9
aF0.9
aF-0.9
aF0.9
aF-0.9
aF0.9
aF-0.9
aF0.9
aF-0.9
aF0.9
aF-0.9
aF0.9
aF-0.9
aF0.9
aF-0.9
aF0.9
aF-0.9
aF0.9
aF-0.9
aF0.9
aF-0.9
aF0.9
aF-0.9
aF0.9
aF-0.9
aF0.9
aF-0.9
aF0.9
aF-0.9
aF0.9
aF-0.9
aF0.9
aF-0.9
aF0.9
aF-0.9
aF0.9
aF-0.9
aF0.9
aF-0.9
aF0.9
aF-0.9
aF0.9
aF-0.9
aF0.9
aF-0.9
aF0.9
aF-0.9
aF0.9
aF-0.9
aF0.9
aF-0.9
aF0.9
aF-0.9
aF0.9
aF-0.9
aF0.9
aF-0.9
aF0.9
aF-0.9
aF0.9
aF-0.9
aF0.9
aF-0.9
aF0.9
aF-0.9
aF0.9
aF-0.9
aF0.9
aF-0.9
aF0.9
aF-0.9
aF0.9
aF-0.9
aF0.9
aF-0.9
aF0.9
aF-0.9
aF0.9
aF-0.9
aF0.9
aF-0.9
aF0.9
aF-0.9
aF0.9
aF-0.9
aF0.9
aF-0.9
aF0.9
aF-0.9
aF0.9
aF-0.9
aF0.9
aF-0.9
aF0.9
aF-0.9
aF0.9
aF-0.9
aF0.9
aF-0.9
aF0.9
aF-0.9
aF0.9
aF-0.9
aF0.9
aF-0.9
aF0.9
aF-0.9
aF0.9
aF-0.9
aF0.9
aF-0.9
aF0.9
aF-0.9
aF0.9
aF-0.9
aF0.9
aF-0.9
aF0.9
aF-0.9
aF0.9
aF-0.9
aF0.9
aF-0.9
aF0.9
aF-0.9
aF0.9
aF-0.9
aF0.9
aF-0.9
aF0.9
aF-0.9
aF0.9
aF-0.9
aF0.9
aF-0.9
aF0.9
aF-0.9
aF0.9
aF-0.9
aF0.9
aF-0.9
aF0.9
aF-0.9
aF0.9
aF-0.9
aF0.9
aF-0.9
aF0.9
aF-0.9
aF0.9
asg12
(lp38
F0.125
aF0.125
aF0.125
aF0.125
aF0.125
aF0.125
aF0.125
aF0.125
aF0.125
aF0.125
aF0.125
aF0.125
aF0.125
aF0.125
aF0.125
aF0.125
aF0.125
aF0.125
aF0.125
aF0.125
aF0.125
aF0.125
aF0.125
aF0.125
aF0.125
aF0.125
aF0.125
aF0.125
aF0.125
aF0.125
aF0.125
aF0.125
aF0.125
aF0.125
aF0.125
aF0.125
aF0.125
aF0.125
aF0.125
aF0.125
aF0.125
aF0.125
aF0.125
aF0.125
aF0.125
aF0.125
aF0.125
aF0.125
aF0.125
aF0.125
aF0.125
aF0.125
aF0.125
aF0.125
aF0.125
aF0.125
aF0.125
aF0.125
aF0.125
aF0.125
aF0.125
aF0.125
aF0.125
aF0.125
aF0.125
aF0.125
aF0.125
aF0.125
aF0.125
aF0.125
aF0.125
aF0.125
aF0.125
aF0.125
aF0.125
aF0.125
aF0.125
aF0.125
aF0.125
aF0.125
aF0.125
aF0.125
aF0.125
aF0.125
aF0.125
aF0.125
aF0.125
aF0.125
aF0.125
aF0.125
aF0.125
aF0.125
aF0.125
aF0.125
aF0.125
aF0.125
aF0.125
aF0.125
aF0.125
aF0.125
aF0.125
aF0.125
aF0.125
aF0.125
aF0.125
aF0.125
aF0.125
aF0.125
aF0.125
aF0.125
aF0.125
aF0.125
aF0.125
aF0.125
aF0.125
aF0.125
aF0.125
aF0.125
aF0.125
aF0.125
aF0.125
aF0.125
aF0.125
aF0.125
aF0.125
aF0.125
aF0.125
aF0.125
aF0.25
aF0.25
aF0.25
aF0.25
aF0.25
aF0.25
aF0.25
aF0.25
aF0.25
aF0.25
aF0.25
aF0.25
aF0.25
aF0.25
aF0.25
aF0.25
aF0.25
aF0.25
aF0.25
aF0.25
aF0.25
aF0.25
aF0.25
aF0.25
aF0.25
aF0.25
aF0.25
aF0.25
aF0.25
aF0.25
aF0.25
aF0.25
aF0.25
aF0.25
aF0.25
aF0.25
aF0.25
aF0.25
aF0.25
aF0.25
aF0.25
aF0.25
aF0.25
aF0.25
aF0.25
aF0.25
aF0.25
aF0.25
aF0.25
aF0.25
aF0.25
aF0.25
aF0.25
aF0.25
aF0.25
aF0.25
aF0.25
aF0.25
aF0.25
aF0.25
aF0.25
aF0.25
aF0.25
aF0.25
aF0.25
aF0.25
aF0.25
aF0.25
aF0.25
aF0.25
aF0.25
aF0.25
aF0.25
aF0.25
aF0.25
aF0.25
aF0.25
aF0.25
aF0.25
aF0.25
aF0.25
aF0.25
aF0.25
aF0.25
aF0.25
aF0.25
aF0.25
aF0.25
aF0.25
aF0.25
aF0.25
aF0.25
aF0.25
aF0.25
aF0.25
aF0.25
aF0.25
aF0.25
aF0.25
aF0.25
aF0.25
aF0.25
aF0.25
aF0.25
aF0.25
aF0.25
aF0.25
aF0.25
aF0.25
aF0.25
aF0.25
aF0.25
aF0.25
aF0.25
aF0.25
aF0.25
aF0.25
aF0.25
aF0.25
aF0.25
aF0.25
aF0.25
aF0.25
aF0.25
aF0.25
aF0.25
aF0.25
aF0.25
assg8
I2
sS'n_var_2'
p39
I0
sS'variables_names'
p40
(lp41
g12
ag14
ag16
ag18
ag20
ag22
ag24
ag26
asS'output'
p42
(dp43
S'delta_xi'
p44
(lp45
F1.0
aF1.0
aF1.0
aF1.0
aF0.9999057511556471
aF1.0
aF1.0
aF1.0
aF1.0
aF0.9998010044500005
aF1.0
aF1.0
aF1.0
aF1.0
aF1.0
aF1.0
aF1.0
aF0.9999357638198437
aF0.20530425565247867
aF0.20530425565247679
aF1.0
aF1.0
aF0.7755783363833252
aF0.859789402406922
aF1.0
aF1.0
aF1.0
aF1.0
aF0.9999199768635507
aF1.0
aF1.0
aF1.0
aF1.0
aF1.0
aF1.0
aF1.0
aF1.0
aF1.0
aF1.0
aF1.0
aF1.0
aF1.0
aF1.0
aF1.0
aF1.0
aF1.0
aF1.0
aF1.0
aF1.0
aF1.0
aF1.0
aF1.0
aF1.0
aF1.0
aF1.0
aF1.0
aF1.0
aF1.0
aF1.0
aF1.0
aF1.0
aF1.0
aF1.0
aF1.0
aF0.0
aF0.0
aF0.0
aF0.0
aF0.0
aF0.0
aF0.0
aF0.0
aF0.0
aF0.0
aF0.0
aF0.0
aF0.0
aF0.0
aF0.0
aF0.0
aF1.0
aF0.9999181503515103
aF0.20530425565247867
aF0.20530425565247867
aF1.0
aF1.0
aF0.784988958001506
aF0.851892014110907
aF1.0
aF1.0
aF1.0
aF1.0
aF0.9999129703749365
aF1.0
aF1.0
aF1.0
aF0.0
aF0.0
aF0.0
aF0.0
aF0.0
aF0.0
aF0.0
aF0.0
aF0.0
aF0.0
aF0.0
aF0.0
aF0.0
aF0.0
aF0.0
aF0.0
aF0.0
aF0.0
aF0.0
aF0.0
aF0.0
aF0.0
aF0.0
aF0.0
aF0.0
aF0.0
aF0.0
aF0.0
aF0.0
aF0.0
aF0.0
aF0.0
aF1.0
aF1.0
aF0.9997024143390433
aF0.9993761721521324
aF1.0
aF1.0
aF1.0
aF1.0
aF1.0
aF1.0
aF1.0
aF1.0
aF1.0
aF1.0
aF1.0
aF1.0
aF1.0
aF1.0
aF0.9462310587059232
aF0.9110753438925493
aF0.9998625527056424
aF1.0
aF1.0
aF1.0
aF1.0
aF0.9998993623621935
aF1.0
aF1.0
aF1.0
aF1.0
aF1.0
aF1.0
aF0.7608485990721329
aF0.8408941015546684
aF0.4075069245837475
aF0.39137433267700783
aF0.5884315769517181
aF1.0
aF1.0
aF1.0
aF0.9910871350082544
aF0.5890625182702203
aF0.9565341320027881
aF0.9532396883452906
aF1.0
aF0.9780260880646648
aF0.9291540802074146
aF0.9249080503151342
aF0.7641482042285984
aF0.8450852339696249
aF0.40783194695501324
aF0.3916337974819398
aF0.589946228706034
aF1.0
aF1.0
aF1.0
aF0.9923224639772616
aF0.5904316226891098
aF0.9599455233811068
aF0.9567655813266306
aF1.0
aF0.980378152490503
aF0.933221614466219
aF0.929034135341133
aF0.0
aF0.0
aF0.0
aF0.0
aF0.0
aF0.0
aF0.0
aF0.0
aF0.0
aF0.0
aF0.0
aF0.0
aF0.0
aF0.0
aF0.0
aF0.0
aF0.0
aF0.0
aF0.0
aF0.0
aF0.0
aF0.0
aF0.0
aF0.0
aF0.0
aF0.0
aF0.0
aF0.0
aF0.0
aF0.0
aF0.0
aF0.0
aF0.0
aF0.0
aF0.0
aF0.0
aF0.0
aF0.0
aF0.0
aF0.0
aF0.0
aF0.0
aF0.0
aF0.0
aF0.0
aF0.0
aF0.0
aF0.0
aF0.0
aF0.0
aF0.0
aF0.0
aF0.0
aF0.0
aF0.0
aF0.0
aF0.0
aF0.0
aF0.0
aF0.0
aF0.0
aF0.0
aF0.0
aF0.0
asS'theta'
p46
(lp47
F-0.5610795887727766
aF-0.5920210163296388
aF-0.22690434126397188
aF-0.24547683940473713
aF-0.5487536751583487
aF-0.5796964334708741
acnumpy.core.multiarray
scalar
p48
(cnumpy
dtype
p49
(S'f8'
p50
I0
I1
tp51
Rp52
(I3
S'<'
p53
NNNI-1
I-1
I0
tp54
bS'\tEoBu\xed\xe0\xbf'
p55
tp56
Rp57
ag48
(g52
S' \xac\xbf\xd9]\x98\xe3\xbf'
p58
tp59
Rp60
aF-0.5712366728461428
aF-0.5445154201820289
aF-0.5692020732045957
aF-0.5690480997270967
aF-0.5791229301092126
aF-0.5703732969645269
aF-0.5680232712724761
aF-0.5678509119721603
aF0.40012461899592067
aF0.37110142080871467
ag48
(g52
S'E\xb8\x06\x1b\xac\xf8\x11?'
p61
tp62
Rp63
ag48
(g52
S'\x01\xe3\x05\x1b\xac\xf8\x11?'
p64
tp65
Rp66
aF0.41229426144914993
aF0.38257346191746894
aF0.26484064586387357
aF0.29654426375407583
aF0.39161812363400045
aF0.4020371858809152
aF0.3893557505068961
aF0.3895133637322976
aF0.36979086845985715
aF0.3913875023163032
aF0.3905719338800488
aF0.39071767475736946
ag48
(g52
S'\r\xf0_\x13\xd9^\xda\xbf'
p67
tp68
Rp69
ag48
(g52
S'kG\xb2\xdes\xdb\xd9\xbf'
p70
tp71
Rp72
aF-0.23131648035033592
aF-0.23340159883855424
aF-0.315810612249433
ag48
(g52
S'4\xc4\xae\x0e\x9c\x16\xd7\xbf'
p73
tp74
Rp75
ag48
(g52
S'y@\xef\xf4\xf7>\xdf\xbf'
p76
tp77
Rp78
ag48
(g52
S'0\xda@\x05\x91\xc2\xde\xbf'
p79
tp80
Rp81
ag48
(g52
S'\xf3XP\x9a\x86,\xd5\xbf'
p82
tp83
Rp84
aF-0.24746314730700705
ag48
(g52
S'/b\xe1\xc6\xb6\x05\xd3\xbf'
p85
tp86
Rp87
ag48
(g52
S'\x88\xbc\x0e\xb9#\xe7\xd2\xbf'
p88
tp89
Rp90
ag48
(g52
S'\xc6\xd9w}9\xf4\xd3\xbf'
p91
tp92
Rp93
ag48
(g52
S'\x17UV\xebQ\x91\xd4\xbf'
p94
tp95
Rp96
ag48
(g52
S'\xa1\xbdpz\xea\x06\xd2\xbf'
p97
tp98
Rp99
ag48
(g52
S'\x9aU\x02\x0bR\xe0\xd1\xbf'
p100
tp101
Rp102
ag48
(g52
S'\t\x96Be\xaa\xf5\xd8\xbf'
p103
tp104
Rp105
ag48
(g52
S'\xc3\x08\x1d\xac\xcb\xde\xd9\xbf'
p106
tp107
Rp108
aF-0.2370412135121604
aF-0.2409814182718261
aF-0.2977024593931843
ag48
(g52
S'\xf3\xb8%\x13\x0c:\xd7\xbf'
p109
tp110
Rp111
ag48
(g52
S'\xb4\x9e\xed\x8beg\xdf\xbf'
p112
tp113
Rp114
ag48
(g52
S't\xc9\xb7>\xef\xe3\xde\xbf'
p115
tp116
Rp117
ag48
(g52
S'\x8c}V\xad\xff\x83\xd4\xbf'
p118
tp119
Rp120
aF-0.29063656527198
ag48
(g52
S'\x9f\x8a\xfa\xf7\x95I\xd2\xbf'
p121
tp122
Rp123
ag48
(g52
S',r\x07\xd6$)\xd2\xbf'
p124
tp125
Rp126
ag48
(g52
S'\x8a\xc1\x90\x1cK\xb3\xd2\xbf'
p127
tp128
Rp129
ag48
(g52
S'\x1cK|c\xd1\xf3\xd3\xbf'
p130
tp131
Rp132
ag48
(g52
S'\x97#\x14c\x91\xb2\xd0\xbf'
p133
tp134
Rp135
ag48
(g52
S']O]rvc\xd2\xbf'
p136
tp137
Rp138
aI0
aI0
aI0
aI0
aI0
aI0
aI0
aI0
aI0
aI0
aI0
aI0
aI0
aI0
aI0
aI0
aF0.3303136961768464
aF0.3027211451582288
ag48
(g52
S'\x80\x97\x9a\x82\xa3\x91\t?'
p139
tp140
Rp141
ag48
(g52
S'1.\x9b\x82\xa3\x91\t?'
p142
tp143
Rp144
ag48
(g52
S'z\xb8\xba\xcd\x1a\xe7\xd5?'
p145
tp146
Rp147
aF0.3135301379054937
aF0.21412704126740031
aF0.2358785921174873
aF0.32223159442349353
aF0.33312878209768454
aF0.32016140258727527
aF0.32031050670733985
aF0.3024160240439431
aF0.32172111581992036
aF0.3213488474282553
aF0.32148884819090173
aI0
aI0
aI0
aI0
aI0
aI0
aI0
aI0
aI0
aI0
aI0
aI0
aI0
aI0
aI0
aI0
aI0
aI0
aI0
aI0
aI0
aI0
aI0
aI0
aI0
aI0
aI0
aI0
aI0
aI0
aI0
aI0
aF-0.0829601263203285
aF-0.0869170318046191
aF-0.07745715942941085
aF-0.07674025641905592
aF-0.08145652709297037
aF-0.08526881418321988
aF-0.09284590308892054
ag48
(g52
S'\xa5\xa0k\xcb\xf2\x84\xb7\xbf'
p148
tp149
Rp150
aF-0.08403070979727088
aF-0.08183001020483954
aF-0.0841584737890363
aF-0.0841387498983922
aF-0.08614962231004938
aF-0.08417858310103837
aF-0.0839881246172067
aF-0.08396812434486028
aF-0.14192285999230264
aF-0.15276006463910388
aF-0.12086129195730352
aF-0.11483839522233792
aF-0.13790048883966716
aF-0.14819917551793718
ag48
(g52
S'\x04\xc7\xa0\x8a\x95\xb6\xc5\xbf'
p151
tp152
Rp153
ag48
(g52
S'\x17l\xe5\xc6\x0fZ\xc5\xbf'
p154
tp155
Rp156
aF-0.14484245325773923
aF-0.13861176487156684
aF-0.14509143570116476
aF-0.14503817727529647
aF-0.1502692297468311
aF-0.14521399748690378
aF-0.14463227650544397
aF-0.1445776591291819
aF-0.404075281457715
ag48
(g52
S'\xca\x97\xdbT}v\xd8\xbf'
p157
tp158
Rp159
aF-0.14523885187368707
aF-0.133714811542645
aF-0.2754792189814976
aF-0.7005801647637173
ag48
(g52
S'\x0c$\x85\xb0\xa4B\xec\xbf'
p160
tp161
Rp162
ag48
(g52
S'Q\xb3\x83\n*\x8e\xea\xbf'
p163
tp164
Rp165
aF-0.607470169669057
aF-0.27593915858733753
aF-0.5668494051120725
aF-0.5636337310650732
aF-0.6768865818887503
aF-0.5896257370399786
aF-0.5412435007617014
aF-0.5374452776173962
aF-0.4063289334067184
ag48
(g52
S'\x9e\x1aa\xb6\xde\xb1\xd8\xbf'
p166
tp167
Rp168
aF-0.1455346752257709
aF-0.133965051295796
aF-0.27655213124742417
aF-0.6999718614568456
ag48
(g52
S'\xd5V\x93\xb6\x87&\xec\xbf'
p169
tp170
Rp171
ag48
(g52
S'\x8f\x98{a:w\xea\xbf'
p172
tp173
Rp174
aF-0.6085839250175291
aF-0.2769056086529401
aF-0.5693565823624571
aF-0.566214453936115
aF-0.6766090184633947
aF-0.5914554460884913
aF-0.54415470081221
aF-0.5403902204145417
aI0
aI0
aI0
aI0
aI0
aI0
aI0
aI0
aI0
aI0
aI0
aI0
aI0
aI0
aI0
aI0
aI0
aI0
aI0
aI0
aI0
aI0
aI0
aI0
aI0
aI0
aI0
aI0
aI0
aI0
aI0
aI0
aI0
aI0
aI0
aI0
aI0
aI0
aI0
aI0
aI0
aI0
aI0
aI0
aI0
aI0
aI0
aI0
aI0
aI0
aI0
aI0
aI0
aI0
aI0
aI0
aI0
aI0
aI0
aI0
aI0
aI0
aI0
aI0
asS'k'
p175
(lp176
g48
(g52
S'\xea\xa0\x9b\x15\xfc\x8aT\xc0'
p177
tp178
Rp179
ag48
(g52
S'm\xcdD\xcd\x98\x82`@'
p180
tp181
Rp182
ag48
(g52
S'\x9e\x01W.m\xc8 \xc0'
p183
tp184
Rp185
ag48
(g52
S'Z\x0ev\xf0\xad\x9d"\xc0'
p186
tp187
Rp188
ag48
(g52
S'\x81\xcdD\xcd\x98\x82`\xc0'
p189
tp190
Rp191
ag48
(g52
S'\xdb\xa0\x9b\x15\xfc\x8aT@'
p192
tp193
Rp194
ag48
(g52
S'\'\x0ev\xf0\xad\x9d"@'
p195
tp196
Rp197
ag48
(g52
S'\x9e\x01W.m\xc8 @'
p198
tp199
Rp200
ag48
(g52
S'\xb1\xa7\xc6\xa0\xbd\xa4\x94@'
p201
tp202
Rp203
ag48
(g52
S'\xae,\xe8\xac,\x1c\xad@'
p204
tp205
Rp206
ag48
(g52
S'?\x80%\xde\xe2w)\xc0'
p207
tp208
Rp209
ag48
(g52
S'\xdd\xf6\xd0\xfa9p)\xc0'
p210
tp211
Rp212
ag48
(g52
S'\xa2,\xe8\xac,\x1c\xad\xc0'
p213
tp214
Rp215
ag48
(g52
S'\xb1\xa7\xc6\xa0\xbd\xa4\x94\xc0'
p216
tp217
Rp218
ag48
(g52
S'\xfc\xf6\xd0\xfa9p)@'
p219
tp220
Rp221
ag48
(g52
S'^\x80%\xde\xe2w)@'
p222
tp223
Rp224
ag48
(g52
S's 1>\xa6\\d@'
p225
tp226
Rp227
ag48
(g52
S'C"\xf7\x8c[]p\xc0'
p228
tp229
Rp230
ag48
(g52
S'Y\xab-m\x92\xa20@'
p231
tp232
Rp233
ag48
(g52
S'\x8d\x88H\xc4\xb0s2@'
p234
tp235
Rp236
ag48
(g52
S'>"\xf7\x8c[]p@'
p237
tp238
Rp239
ag48
(g52
S'x 1>\xa6\\d\xc0'
p240
tp241
Rp242
ag48
(g52
S'\x9f\x88H\xc4\xb0s2\xc0'
p243
tp244
Rp245
ag48
(g52
S'Y\xab-m\x92\xa20\xc0'
p246
tp247
Rp248
ag48
(g52
S'\xe4\xa6^\xb1-v\xa4\xc0'
p249
tp250
Rp251
ag48
(g52
S'\xe1\x14\xa4\x02\x84\xda\xbc\xc0'
p252
tp253
Rp254
ag48
(g52
S'+\xb5\xc0\x03q>9@'
p255
tp256
Rp257
ag48
(g52
S'8\xd3Gg\xd969@'
p258
tp259
Rp260
ag48
(g52
S'\xe6\x14\xa4\x02\x84\xda\xbc@'
p261
tp262
Rp263
ag48
(g52
S'\xe4\xa6^\xb1-v\xa4@'
p264
tp265
Rp266
ag48
(g52
S'.\xd3Gg\xd969\xc0'
p267
tp268
Rp269
ag48
(g52
S'!\xb5\xc0\x03q>9\xc0'
p270
tp271
Rp272
ag48
(g52
S'x\xce\x9d\x9e\xa8\xd4o\xc0'
p273
tp274
Rp275
ag48
(g52
S'\xfc\xef\x0e8\x00\x95y@'
p276
tp277
Rp278
ag48
(g52
S"\x8c'\xf123\x01:\xc0"
p279
tp280
Rp281
ag48
(g52
S'[\x1b\x02\x8eK\xd8<\xc0'
p282
tp283
Rp284
ag48
(g52
S'\xc9\xef\x0e8\x00\x95y\xc0'
p285
tp286
Rp287
ag48
(g52
S'\x9f\xce\x9d\x9e\xa8\xd4o@'
p288
tp289
Rp290
ag48
(g52
S'\xdb\x1b\x02\x8eK\xd8<@'
p291
tp292
Rp293
ag48
(g52
S"\x8c'\xf123\x01:@"
p294
tp295
Rp296
ag48
(g52
S'\xc4,k$\x91\xfc\xaf@'
p297
tp298
Rp299
ag48
(g52
S'\xd1L#ny\x8d\xc6@'
p300
tp301
Rp302
ag48
(g52
S'\xf5O\xe6:2\xbbC\xc0'
p303
tp304
Rp305
ag48
(g52
S'=\xdb\xce\x0eC\xb5C\xc0'
p306
tp307
Rp308
ag48
(g52
S'\xe0L#ny\x8d\xc6\xc0'
p309
tp310
Rp311
ag48
(g52
S'\xc4,k$\x91\xfc\xaf\xc0'
p312
tp313
Rp314
ag48
(g52
S'\x13\xdb\xce\x0eC\xb5C@'
p315
tp316
Rp317
ag48
(g52
S'\xcbO\xe6:2\xbbC@'
p318
tp319
Rp320
ag48
(g52
S'\x02\xc1@\x19"In\xc0'
p321
tp322
Rp323
ag48
(g52
S'\x9e\xde\x04\xe8\x1eWx@'
p324
tp325
Rp326
ag48
(g52
S'D\xd3\xcbi\x11\xbe8\xc0'
p327
tp328
Rp329
ag48
(g52
S'aL\xc3\xf2\xdeq;\xc0'
p330
tp331
Rp332
ag48
(g52
S'j\xde\x04\xe8\x1eWx\xc0'
p333
tp334
Rp335
ag48
(g52
S')\xc1@\x19"In@'
p336
tp337
Rp338
ag48
(g52
S'\xe5L\xc3\xf2\xdeq;@'
p339
tp340
Rp341
ag48
(g52
S'D\xd3\xcbi\x11\xbe8@'
p342
tp343
Rp344
ag48
(g52
S'f\xd3o\xb9\x1ao\xae@'
p345
tp346
Rp347
ag48
(g52
S'\x9aC\x0b\xbe<u\xc5@'
p348
tp349
Rp350
ag48
(g52
S'c`\xd2\x81\x04\xc6B\xc0'
p351
tp352
Rp353
ag48
(g52
S'\x95\xe6\xd4\x12_\xc0B\xc0'
p354
tp355
Rp356
ag48
(g52
S'\xabC\x0b\xbe<u\xc5\xc0'
p357
tp358
Rp359
ag48
(g52
S'f\xd3o\xb9\x1ao\xae\xc0'
p360
tp361
Rp362
ag48
(g52
S'l\xe6\xd4\x12_\xc0B@'
p363
tp364
Rp365
ag48
(g52
S'9`\xd2\x81\x04\xc6B@'
p366
tp367
Rp368
aF0.0
aF0.0
aF0.0
aF0.0
aF0.0
aF0.0
aF0.0
aF0.0
aF0.0
aF0.0
aF0.0
aF0.0
aF0.0
aF0.0
aF0.0
aF0.0
ag48
(g52
S'\xa7D\xb8C\x0f\xd9l@'
p369
tp370
Rp371
ag48
(g52
S'\xc58\x10\xaeM/w\xc0'
p372
tp373
Rp374
ag48
(g52
S'\xcdeL\x07]\x917@'
p375
tp376
Rp377
ag48
(g52
S'\xc4\r\xa3\xd0R$:@'
p378
tp379
Rp380
ag48
(g52
S'\xc18\x10\xaeM/w@'
p381
tp382
Rp383
ag48
(g52
S'\xacD\xb8C\x0f\xd9l\xc0'
p384
tp385
Rp386
ag48
(g52
S'\xdb\r\xa3\xd0R$:\xc0'
p387
tp388
Rp389
ag48
(g52
S'\xcdeL\x07]\x917\xc0'
p390
tp391
Rp392
ag48
(g52
S'\xf3\xba^i:\xfd\xac\xc0'
p393
tp394
Rp395
ag48
(g52
S'\xe3\xe8\xb8Lsp\xc4\xc0'
p396
tp397
Rp398
ag48
(g52
S'Y\xa1\x8f\x1c\xdb\xe1A@'
p399
tp400
Rp401
ag48
(g52
S'\xdaB|Lz\xdcA@'
p402
tp403
Rp404
ag48
(g52
S'\xe7\xe8\xb8Lsp\xc4@'
p405
tp406
Rp407
ag48
(g52
S'\xf3\xba^i:\xfd\xac@'
p408
tp409
Rp410
ag48
(g52
S'\xd5B|Lz\xdcA\xc0'
p411
tp412
Rp413
ag48
(g52
S'T\xa1\x8f\x1c\xdb\xe1A\xc0'
p414
tp415
Rp416
aF0.0
aF0.0
aF0.0
aF0.0
aF0.0
aF0.0
aF0.0
aF0.0
aF0.0
aF0.0
aF0.0
aF0.0
aF0.0
aF0.0
aF0.0
aF0.0
aF0.0
aF0.0
aF0.0
aF0.0
aF0.0
aF0.0
aF0.0
aF0.0
aF0.0
aF0.0
aF0.0
aF0.0
aF0.0
aF0.0
aF0.0
aF0.0
ag48
(g52
S'5\xf2I\xdb\x7fKr\xc0'
p417
tp418
Rp419
ag48
(g52
S'#\xe6id+h}@'
p420
tp421
Rp422
ag48
(g52
S'>\x1d`\xc3\x8b\xe4=\xc0'
p423
tp424
Rp425
ag48
(g52
S'\xa2\xce\xec\x12-\x94@\xc0'
p426
tp427
Rp428
ag48
(g52
S'=\xe6id+h}\xc0'
p429
tp430
Rp431
ag48
(g52
S'+\xf2I\xdb\x7fKr@'
p432
tp433
Rp434
ag48
(g52
S'\x81\xce\xec\x12-\x94@@'
p435
tp436
Rp437
ag48
(g52
S'>\x1d`\xc3\x8b\xe4=@'
p438
tp439
Rp440
ag48
(g52
S'\x92?$\xe0ob\xb2@'
p441
tp442
Rp443
ag48
(g52
S'\xb6\xbb,\xd5\xb0\xec\xc9@'
p444
tp445
Rp446
ag48
(g52
S'\x10\x9cW\xfak\xaeF\xc0'
p447
tp448
Rp449
ag48
(g52
S'u\x94\xf7\xaa\x99\xa7F\xc0'
p450
tp451
Rp452
ag48
(g52
S'\xaf\xbb,\xd5\xb0\xec\xc9\xc0'
p453
tp454
Rp455
ag48
(g52
S'\x92?$\xe0ob\xb2\xc0'
p456
tp457
Rp458
ag48
(g52
S'\x89\x94\xf7\xaa\x99\xa7F@'
p459
tp460
Rp461
ag48
(g52
S'%\x9cW\xfak\xaeF@'
p462
tp463
Rp464
ag48
(g52
S'\xdb\x12\xee=\x9d\xa3k\xc0'
p465
tp466
Rp467
ag48
(g52
S'mQ(\xe5\x9a6v@'
p468
tp469
Rp470
ag48
(g52
S'my\xe9_\x8e\x946\xc0'
p471
tp472
Rp473
ag48
(g52
S'%\x7f\x8a\xa1\xe7\x0b9\xc0'
p474
tp475
Rp476
ag48
(g52
S'\x82Q(\xe5\x9a6v\xc0'
p477
tp478
Rp479
ag48
(g52
S'\xca\x12\xee=\x9d\xa3k@'
p480
tp481
Rp482
ag48
(g52
S'\xee~\x8a\xa1\xe7\x0b9@'
p483
tp484
Rp485
ag48
(g52
S'my\xe9_\x8e\x946@'
p486
tp487
Rp488
ag48
(g52
S'\xe6\xf3\x9ajD\xc6\xab@'
p489
tp490
Rp491
ag48
(g52
S'6\xa9*\xe03\x95\xc3@'
p492
tp493
Rp494
ag48
(g52
S'\x1a[wc\t"A\xc0'
p495
tp496
Rp497
ag48
(g52
S'\xa9\xf6-D\xe2\x1cA\xc0'
p498
tp499
Rp500
ag48
(g52
S'.\xa9*\xe03\x95\xc3\xc0'
p501
tp502
Rp503
ag48
(g52
S'\xe6\xf3\x9ajD\xc6\xab\xc0'
p504
tp505
Rp506
ag48
(g52
S'\xbc\xf6-D\xe2\x1cA@'
p507
tp508
Rp509
ag48
(g52
S',[wc\t"A@'
p510
tp511
Rp512
ag48
(g52
S'N\x14!\x0f+\x7fu\xc0'
p513
tp514
Rp515
ag48
(g52
S'\xca\xd3\xcbI\xd8F\x81@'
p516
tp517
Rp518
ag48
(g52
S'l\xee\xa0\xb2\xea\x8fA\xc0'
p519
tp520
Rp521
ag48
(g52
S'\xea)r<\xf5zC\xc0'
p522
tp523
Rp524
ag48
(g52
S'\xd9\xd3\xcbI\xd8F\x81\xc0'
p525
tp526
Rp527
ag48
(g52
S'C\x14!\x0f+\x7fu@'
p528
tp529
Rp530
ag48
(g52
S'\xc2)r<\xf5zC@'
p531
tp532
Rp533
ag48
(g52
S'l\xee\xa0\xb2\xea\x8fA@'
p534
tp535
Rp536
ag48
(g52
S'W!\x85\xc0\x1e\x9a\xb5@'
p537
tp538
Rp539
ag48
(g52
S'1\x0b\xdb\x051v\xce@'
p540
tp541
Rp542
ag48
(g52
S'\xdd3\x91\x8f\x9d\xa6J\xc0'
p543
tp544
Rp545
ag48
(g52
S'\xcd4\x1f\xa0\x99\x9eJ\xc0'
p546
tp547
Rp548
ag48
(g52
S'(\x0b\xdb\x051v\xce\xc0'
p549
tp550
Rp551
ag48
(g52
S'W!\x85\xc0\x1e\x9a\xb5\xc0'
p552
tp553
Rp554
ag48
(g52
S'\xe74\x1f\xa0\x99\x9eJ@'
p555
tp556
Rp557
ag48
(g52
S'\xf83\x91\x8f\x9d\xa6J@'
p558
tp559
Rp560
ag48
(g52
S'\x1d\xfd_{z|u\xc0'
p561
tp562
Rp563
ag48
(g52
S'\xc4~\x9e\xe2\xaeD\x81@'
p564
tp565
Rp566
ag48
(g52
S'\xde\xc4\xd5&\xb8\x8dA\xc0'
p567
tp568
Rp569
ag48
(g52
S'\xe6\xab\xc6?\x85xC\xc0'
p570
tp571
Rp572
ag48
(g52
S'\xd3~\x9e\xe2\xaeD\x81\xc0'
p573
tp574
Rp575
ag48
(g52
S'\x13\xfd_{z|u@'
p576
tp577
Rp578
ag48
(g52
S'\xbd\xab\xc6?\x85xC@'
p579
tp580
Rp581
ag48
(g52
S'\xde\xc4\xd5&\xb8\x8dA@'
p582
tp583
Rp584
ag48
(g52
S'y>s\xcdj\x97\xb5@'
p585
tp586
Rp587
ag48
(g52
S'%\xed\xa2Har\xce@'
p588
tp589
Rp590
ag48
(g52
S'\xf8L\xb1\xe3G\xa3J\xc0'
p591
tp592
Rp593
ag48
(g52
S'\x85@\xfe\xf4D\x9bJ\xc0'
p594
tp595
Rp596
ag48
(g52
S'\x1e\xed\xa2Har\xce\xc0'
p597
tp598
Rp599
ag48
(g52
S'y>s\xcdj\x97\xb5\xc0'
p600
tp601
Rp602
ag48
(g52
S'\x9e@\xfe\xf4D\x9bJ@'
p603
tp604
Rp605
ag48
(g52
S'\x11M\xb1\xe3G\xa3J@'
p606
tp607
Rp608
aF0.0
aF0.0
aF0.0
aF0.0
aF0.0
aF0.0
aF0.0
aF0.0
aF0.0
aF0.0
aF0.0
aF0.0
aF0.0
aF0.0
aF0.0
aF0.0
aF0.0
aF0.0
aF0.0
aF0.0
aF0.0
aF0.0
aF0.0
aF0.0
aF0.0
aF0.0
aF0.0
aF0.0
aF0.0
aF0.0
aF0.0
aF0.0
aF0.0
aF0.0
aF0.0
aF0.0
aF0.0
aF0.0
aF0.0
aF0.0
aF0.0
aF0.0
aF0.0
aF0.0
aF0.0
aF0.0
aF0.0
aF0.0
aF0.0
aF0.0
aF0.0
aF0.0
aF0.0
aF0.0
aF0.0
aF0.0
aF0.0
aF0.0
aF0.0
aF0.0
aF0.0
aF0.0
aF0.0
aF0.0
asS'T'
p609
(lp610
F400.0
aF400.0
aF390.9547738693467
aF395.4773869346734
aF400.0
aF400.0
aF335.7788944723618
aF337.58793969849245
aF400.0
aF400.0
aF400.0
aF400.0
aF400.0
aF400.0
aF400.0
aF400.0
aF400.0
aF400.0
aF400.0
aF400.0
aF400.0
aF400.0
aF400.0
aF400.0
aF400.0
aF400.0
aF400.0
aF400.0
aF400.0
aF400.0
aF400.0
aF400.0
aF345.7286432160804
aF333.96984924623115
aF363.8190954773869
aF366.5326633165829
aF350.251256281407
aF338.4924623115578
aF329.4472361809045
aF329.4472361809045
aF342.1105527638191
aF349.3467336683417
aF342.1105527638191
aF342.1105527638191
aF336.68341708542715
aF342.1105527638191
aF342.1105527638191
aF342.1105527638191
aF344.8241206030151
aF333.96984924623115
aF362.9145728643216
aF365.6281407035176
aF349.3467336683417
aF338.4924623115578
aF329.4472361809045
aF329.4472361809045
aF341.2060301507538
aF349.3467336683417
aF341.2060301507538
aF341.2060301507538
aF335.7788944723618
aF341.2060301507538
aF341.2060301507538
aF342.1105527638191
aF200.0
aF200.0
aF200.0
aF200.0
aF200.0
aF200.0
aF200.0
aF200.0
aF200.0
aF200.0
aF200.0
aF200.0
aF200.0
aF200.0
aF200.0
aF200.0
aF400.0
aF400.0
aF400.0
aF400.0
aF400.0
aF400.0
aF400.0
aF400.0
aF400.0
aF400.0
aF400.0
aF400.0
aF400.0
aF400.0
aF400.0
aF400.0
aF200.0
aF200.0
aF200.0
aF200.0
aF200.0
aF200.0
aF200.0
aF200.0
aF200.0
aF200.0
aF200.0
aF200.0
aF200.0
aF200.0
aF200.0
aF200.0
aF200.0
aF200.0
aF200.0
aF200.0
aF200.0
aF200.0
aF200.0
aF200.0
aF200.0
aF200.0
aF200.0
aF200.0
aF200.0
aF200.0
aF200.0
aF200.0
aF400.0
aF400.0
aF400.0
aF400.0
aF400.0
aF400.0
aF400.0
aF400.0
aF400.0
aF400.0
aF400.0
aF400.0
aF400.0
aF400.0
aF400.0
aF400.0
aF400.0
aF400.0
aF400.0
aF400.0
aF400.0
aF400.0
aF400.0
aF400.0
aF400.0
aF400.0
aF400.0
aF400.0
aF400.0
aF400.0
aF400.0
aF400.0
aF400.0
aF400.0
aF400.0
aF400.0
aF400.0
aF400.0
aF335.7788944723618
aF338.4924623115578
aF400.0
aF400.0
aF400.0
aF400.0
aF400.0
aF400.0
aF400.0
aF400.0
aF400.0
aF400.0
aF400.0
aF400.0
aF400.0
aF400.0
aF335.7788944723618
aF338.4924623115578
aF400.0
aF400.0
aF400.0
aF400.0
aF400.0
aF400.0
aF400.0
aF400.0
aF200.0
aF200.0
aF200.0
aF200.0
aF200.0
aF200.0
aF200.0
aF200.0
aF200.0
aF200.0
aF200.0
aF200.0
aF200.0
aF200.0
aF200.0
aF200.0
aF200.0
aF200.0
aF200.0
aF200.0
aF200.0
aF200.0
aF200.0
aF200.0
aF200.0
aF200.0
aF200.0
aF200.0
aF200.0
aF200.0
aF200.0
aF200.0
aF200.0
aF200.0
aF200.0
aF200.0
aF200.0
aF200.0
aF200.0
aF200.0
aF200.0
aF200.0
aF200.0
aF200.0
aF200.0
aF200.0
aF200.0
aF200.0
aF200.0
aF200.0
aF200.0
aF200.0
aF200.0
aF200.0
aF200.0
aF200.0
aF200.0
aF200.0
aF200.0
aF200.0
aF200.0
aF200.0
aF200.0
aF200.0
assS'n_var'
p611
I8
sS'array'
p612
(lp613
(I0
I0
I0
I0
I0
I0
I0
I0
tp614
a(I0
I0
I0
I0
I0
I0
I0
I1
tp615
a(I0
I0
I0
I0
I0
I0
I1
I0
tp616
a(I0
I0
I0
I0
I0
I0
I1
I1
tp617
a(I0
I0
I0
I0
I0
I1
I0
I0
tp618
a(I0
I0
I0
I0
I0
I1
I0
I1
tp619
a(I0
I0
I0
I0
I0
I1
I1
I0
tp620
a(I0
I0
I0
I0
I0
I1
I1
I1
tp621
a(I0
I0
I0
I0
I1
I0
I0
I0
tp622
a(I0
I0
I0
I0
I1
I0
I0
I1
tp623
a(I0
I0
I0
I0
I1
I0
I1
I0
tp624
a(I0
I0
I0
I0
I1
I0
I1
I1
tp625
a(I0
I0
I0
I0
I1
I1
I0
I0
tp626
a(I0
I0
I0
I0
I1
I1
I0
I1
tp627
a(I0
I0
I0
I0
I1
I1
I1
I0
tp628
a(I0
I0
I0
I0
I1
I1
I1
I1
tp629
a(I0
I0
I0
I1
I0
I0
I0
I0
tp630
a(I0
I0
I0
I1
I0
I0
I0
I1
tp631
a(I0
I0
I0
I1
I0
I0
I1
I0
tp632
a(I0
I0
I0
I1
I0
I0
I1
I1
tp633
a(I0
I0
I0
I1
I0
I1
I0
I0
tp634
a(I0
I0
I0
I1
I0
I1
I0
I1
tp635
a(I0
I0
I0
I1
I0
I1
I1
I0
tp636
a(I0
I0
I0
I1
I0
I1
I1
I1
tp637
a(I0
I0
I0
I1
I1
I0
I0
I0
tp638
a(I0
I0
I0
I1
I1
I0
I0
I1
tp639
a(I0
I0
I0
I1
I1
I0
I1
I0
tp640
a(I0
I0
I0
I1
I1
I0
I1
I1
tp641
a(I0
I0
I0
I1
I1
I1
I0
I0
tp642
a(I0
I0
I0
I1
I1
I1
I0
I1
tp643
a(I0
I0
I0
I1
I1
I1
I1
I0
tp644
a(I0
I0
I0
I1
I1
I1
I1
I1
tp645
a(I0
I0
I1
I0
I0
I0
I0
I0
tp646
a(I0
I0
I1
I0
I0
I0
I0
I1
tp647
a(I0
I0
I1
I0
I0
I0
I1
I0
tp648
a(I0
I0
I1
I0
I0
I0
I1
I1
tp649
a(I0
I0
I1
I0
I0
I1
I0
I0
tp650
a(I0
I0
I1
I0
I0
I1
I0
I1
tp651
a(I0
I0
I1
I0
I0
I1
I1
I0
tp652
a(I0
I0
I1
I0
I0
I1
I1
I1
tp653
a(I0
I0
I1
I0
I1
I0
I0
I0
tp654
a(I0
I0
I1
I0
I1
I0
I0
I1
tp655
a(I0
I0
I1
I0
I1
I0
I1
I0
tp656
a(I0
I0
I1
I0
I1
I0
I1
I1
tp657
a(I0
I0
I1
I0
I1
I1
I0
I0
tp658
a(I0
I0
I1
I0
I1
I1
I0
I1
tp659
a(I0
I0
I1
I0
I1
I1
I1
I0
tp660
a(I0
I0
I1
I0
I1
I1
I1
I1
tp661
a(I0
I0
I1
I1
I0
I0
I0
I0
tp662
a(I0
I0
I1
I1
I0
I0
I0
I1
tp663
a(I0
I0
I1
I1
I0
I0
I1
I0
tp664
a(I0
I0
I1
I1
I0
I0
I1
I1
tp665
a(I0
I0
I1
I1
I0
I1
I0
I0
tp666
a(I0
I0
I1
I1
I0
I1
I0
I1
tp667
a(I0
I0
I1
I1
I0
I1
I1
I0
tp668
a(I0
I0
I1
I1
I0
I1
I1
I1
tp669
a(I0
I0
I1
I1
I1
I0
I0
I0
tp670
a(I0
I0
I1
I1
I1
I0
I0
I1
tp671
a(I0
I0
I1
I1
I1
I0
I1
I0
tp672
a(I0
I0
I1
I1
I1
I0
I1
I1
tp673
a(I0
I0
I1
I1
I1
I1
I0
I0
tp674
a(I0
I0
I1
I1
I1
I1
I0
I1
tp675
a(I0
I0
I1
I1
I1
I1
I1
I0
tp676
a(I0
I0
I1
I1
I1
I1
I1
I1
tp677
a(I0
I1
I0
I0
I0
I0
I0
I0
tp678
a(I0
I1
I0
I0
I0
I0
I0
I1
tp679
a(I0
I1
I0
I0
I0
I0
I1
I0
tp680
a(I0
I1
I0
I0
I0
I0
I1
I1
tp681
a(I0
I1
I0
I0
I0
I1
I0
I0
tp682
a(I0
I1
I0
I0
I0
I1
I0
I1
tp683
a(I0
I1
I0
I0
I0
I1
I1
I0
tp684
a(I0
I1
I0
I0
I0
I1
I1
I1
tp685
a(I0
I1
I0
I0
I1
I0
I0
I0
tp686
a(I0
I1
I0
I0
I1
I0
I0
I1
tp687
a(I0
I1
I0
I0
I1
I0
I1
I0
tp688
a(I0
I1
I0
I0
I1
I0
I1
I1
tp689
a(I0
I1
I0
I0
I1
I1
I0
I0
tp690
a(I0
I1
I0
I0
I1
I1
I0
I1
tp691
a(I0
I1
I0
I0
I1
I1
I1
I0
tp692
a(I0
I1
I0
I0
I1
I1
I1
I1
tp693
a(I0
I1
I0
I1
I0
I0
I0
I0
tp694
a(I0
I1
I0
I1
I0
I0
I0
I1
tp695
a(I0
I1
I0
I1
I0
I0
I1
I0
tp696
a(I0
I1
I0
I1
I0
I0
I1
I1
tp697
a(I0
I1
I0
I1
I0
I1
I0
I0
tp698
a(I0
I1
I0
I1
I0
I1
I0
I1
tp699
a(I0
I1
I0
I1
I0
I1
I1
I0
tp700
a(I0
I1
I0
I1
I0
I1
I1
I1
tp701
a(I0
I1
I0
I1
I1
I0
I0
I0
tp702
a(I0
I1
I0
I1
I1
I0
I0
I1
tp703
a(I0
I1
I0
I1
I1
I0
I1
I0
tp704
a(I0
I1
I0
I1
I1
I0
I1
I1
tp705
a(I0
I1
I0
I1
I1
I1
I0
I0
tp706
a(I0
I1
I0
I1
I1
I1
I0
I1
tp707
a(I0
I1
I0
I1
I1
I1
I1
I0
tp708
a(I0
I1
I0
I1
I1
I1
I1
I1
tp709
a(I0
I1
I1
I0
I0
I0
I0
I0
tp710
a(I0
I1
I1
I0
I0
I0
I0
I1
tp711
a(I0
I1
I1
I0
I0
I0
I1
I0
tp712
a(I0
I1
I1
I0
I0
I0
I1
I1
tp713
a(I0
I1
I1
I0
I0
I1
I0
I0
tp714
a(I0
I1
I1
I0
I0
I1
I0
I1
tp715
a(I0
I1
I1
I0
I0
I1
I1
I0
tp716
a(I0
I1
I1
I0
I0
I1
I1
I1
tp717
a(I0
I1
I1
I0
I1
I0
I0
I0
tp718
a(I0
I1
I1
I0
I1
I0
I0
I1
tp719
a(I0
I1
I1
I0
I1
I0
I1
I0
tp720
a(I0
I1
I1
I0
I1
I0
I1
I1
tp721
a(I0
I1
I1
I0
I1
I1
I0
I0
tp722
a(I0
I1
I1
I0
I1
I1
I0
I1
tp723
a(I0
I1
I1
I0
I1
I1
I1
I0
tp724
a(I0
I1
I1
I0
I1
I1
I1
I1
tp725
a(I0
I1
I1
I1
I0
I0
I0
I0
tp726
a(I0
I1
I1
I1
I0
I0
I0
I1
tp727
a(I0
I1
I1
I1
I0
I0
I1
I0
tp728
a(I0
I1
I1
I1
I0
I0
I1
I1
tp729
a(I0
I1
I1
I1
I0
I1
I0
I0
tp730
a(I0
I1
I1
I1
I0
I1
I0
I1
tp731
a(I0
I1
I1
I1
I0
I1
I1
I0
tp732
a(I0
I1
I1
I1
I0
I1
I1
I1
tp733
a(I0
I1
I1
I1
I1
I0
I0
I0
tp734
a(I0
I1
I1
I1
I1
I0
I0
I1
tp735
a(I0
I1
I1
I1
I1
I0
I1
I0
tp736
a(I0
I1
I1
I1
I1
I0
I1
I1
tp737
a(I0
I1
I1
I1
I1
I1
I0
I0
tp738
a(I0
I1
I1
I1
I1
I1
I0
I1
tp739
a(I0
I1
I1
I1
I1
I1
I1
I0
tp740
a(I0
I1
I1
I1
I1
I1
I1
I1
tp741
a(I1
I0
I0
I0
I0
I0
I0
I0
tp742
a(I1
I0
I0
I0
I0
I0
I0
I1
tp743
a(I1
I0
I0
I0
I0
I0
I1
I0
tp744
a(I1
I0
I0
I0
I0
I0
I1
I1
tp745
a(I1
I0
I0
I0
I0
I1
I0
I0
tp746
a(I1
I0
I0
I0
I0
I1
I0
I1
tp747
a(I1
I0
I0
I0
I0
I1
I1
I0
tp748
a(I1
I0
I0
I0
I0
I1
I1
I1
tp749
a(I1
I0
I0
I0
I1
I0
I0
I0
tp750
a(I1
I0
I0
I0
I1
I0
I0
I1
tp751
a(I1
I0
I0
I0
I1
I0
I1
I0
tp752
a(I1
I0
I0
I0
I1
I0
I1
I1
tp753
a(I1
I0
I0
I0
I1
I1
I0
I0
tp754
a(I1
I0
I0
I0
I1
I1
I0
I1
tp755
a(I1
I0
I0
I0
I1
I1
I1
I0
tp756
a(I1
I0
I0
I0
I1
I1
I1
I1
tp757
a(I1
I0
I0
I1
I0
I0
I0
I0
tp758
a(I1
I0
I0
I1
I0
I0
I0
I1
tp759
a(I1
I0
I0
I1
I0
I0
I1
I0
tp760
a(I1
I0
I0
I1
I0
I0
I1
I1
tp761
a(I1
I0
I0
I1
I0
I1
I0
I0
tp762
a(I1
I0
I0
I1
I0
I1
I0
I1
tp763
a(I1
I0
I0
I1
I0
I1
I1
I0
tp764
a(I1
I0
I0
I1
I0
I1
I1
I1
tp765
a(I1
I0
I0
I1
I1
I0
I0
I0
tp766
a(I1
I0
I0
I1
I1
I0
I0
I1
tp767
a(I1
I0
I0
I1
I1
I0
I1
I0
tp768
a(I1
I0
I0
I1
I1
I0
I1
I1
tp769
a(I1
I0
I0
I1
I1
I1
I0
I0
tp770
a(I1
I0
I0
I1
I1
I1
I0
I1
tp771
a(I1
I0
I0
I1
I1
I1
I1
I0
tp772
a(I1
I0
I0
I1
I1
I1
I1
I1
tp773
a(I1
I0
I1
I0
I0
I0
I0
I0
tp774
a(I1
I0
I1
I0
I0
I0
I0
I1
tp775
a(I1
I0
I1
I0
I0
I0
I1
I0
tp776
a(I1
I0
I1
I0
I0
I0
I1
I1
tp777
a(I1
I0
I1
I0
I0
I1
I0
I0
tp778
a(I1
I0
I1
I0
I0
I1
I0
I1
tp779
a(I1
I0
I1
I0
I0
I1
I1
I0
tp780
a(I1
I0
I1
I0
I0
I1
I1
I1
tp781
a(I1
I0
I1
I0
I1
I0
I0
I0
tp782
a(I1
I0
I1
I0
I1
I0
I0
I1
tp783
a(I1
I0
I1
I0
I1
I0
I1
I0
tp784
a(I1
I0
I1
I0
I1
I0
I1
I1
tp785
a(I1
I0
I1
I0
I1
I1
I0
I0
tp786
a(I1
I0
I1
I0
I1
I1
I0
I1
tp787
a(I1
I0
I1
I0
I1
I1
I1
I0
tp788
a(I1
I0
I1
I0
I1
I1
I1
I1
tp789
a(I1
I0
I1
I1
I0
I0
I0
I0
tp790
a(I1
I0
I1
I1
I0
I0
I0
I1
tp791
a(I1
I0
I1
I1
I0
I0
I1
I0
tp792
a(I1
I0
I1
I1
I0
I0
I1
I1
tp793
a(I1
I0
I1
I1
I0
I1
I0
I0
tp794
a(I1
I0
I1
I1
I0
I1
I0
I1
tp795
a(I1
I0
I1
I1
I0
I1
I1
I0
tp796
a(I1
I0
I1
I1
I0
I1
I1
I1
tp797
a(I1
I0
I1
I1
I1
I0
I0
I0
tp798
a(I1
I0
I1
I1
I1
I0
I0
I1
tp799
a(I1
I0
I1
I1
I1
I0
I1
I0
tp800
a(I1
I0
I1
I1
I1
I0
I1
I1
tp801
a(I1
I0
I1
I1
I1
I1
I0
I0
tp802
a(I1
I0
I1
I1
I1
I1
I0
I1
tp803
a(I1
I0
I1
I1
I1
I1
I1
I0
tp804
a(I1
I0
I1
I1
I1
I1
I1
I1
tp805
a(I1
I1
I0
I0
I0
I0
I0
I0
tp806
a(I1
I1
I0
I0
I0
I0
I0
I1
tp807
a(I1
I1
I0
I0
I0
I0
I1
I0
tp808
a(I1
I1
I0
I0
I0
I0
I1
I1
tp809
a(I1
I1
I0
I0
I0
I1
I0
I0
tp810
a(I1
I1
I0
I0
I0
I1
I0
I1
tp811
a(I1
I1
I0
I0
I0
I1
I1
I0
tp812
a(I1
I1
I0
I0
I0
I1
I1
I1
tp813
a(I1
I1
I0
I0
I1
I0
I0
I0
tp814
a(I1
I1
I0
I0
I1
I0
I0
I1
tp815
a(I1
I1
I0
I0
I1
I0
I1
I0
tp816
a(I1
I1
I0
I0
I1
I0
I1
I1
tp817
a(I1
I1
I0
I0
I1
I1
I0
I0
tp818
a(I1
I1
I0
I0
I1
I1
I0
I1
tp819
a(I1
I1
I0
I0
I1
I1
I1
I0
tp820
a(I1
I1
I0
I0
I1
I1
I1
I1
tp821
a(I1
I1
I0
I1
I0
I0
I0
I0
tp822
a(I1
I1
I0
I1
I0
I0
I0
I1
tp823
a(I1
I1
I0
I1
I0
I0
I1
I0
tp824
a(I1
I1
I0
I1
I0
I0
I1
I1
tp825
a(I1
I1
I0
I1
I0
I1
I0
I0
tp826
a(I1
I1
I0
I1
I0
I1
I0
I1
tp827
a(I1
I1
I0
I1
I0
I1
I1
I0
tp828
a(I1
I1
I0
I1
I0
I1
I1
I1
tp829
a(I1
I1
I0
I1
I1
I0
I0
I0
tp830
a(I1
I1
I0
I1
I1
I0
I0
I1
tp831
a(I1
I1
I0
I1
I1
I0
I1
I0
tp832
a(I1
I1
I0
I1
I1
I0
I1
I1
tp833
a(I1
I1
I0
I1
I1
I1
I0
I0
tp834
a(I1
I1
I0
I1
I1
I1
I0
I1
tp835
a(I1
I1
I0
I1
I1
I1
I1
I0
tp836
a(I1
I1
I0
I1
I1
I1
I1
I1
tp837
a(I1
I1
I1
I0
I0
I0
I0
I0
tp838
a(I1
I1
I1
I0
I0
I0
I0
I1
tp839
a(I1
I1
I1
I0
I0
I0
I1
I0
tp840
a(I1
I1
I1
I0
I0
I0
I1
I1
tp841
a(I1
I1
I1
I0
I0
I1
I0
I0
tp842
a(I1
I1
I1
I0
I0
I1
I0
I1
tp843
a(I1
I1
I1
I0
I0
I1
I1
I0
tp844
a(I1
I1
I1
I0
I0
I1
I1
I1
tp845
a(I1
I1
I1
I0
I1
I0
I0
I0
tp846
a(I1
I1
I1
I0
I1
I0
I0
I1
tp847
a(I1
I1
I1
I0
I1
I0
I1
I0
tp848
a(I1
I1
I1
I0
I1
I0
I1
I1
tp849
a(I1
I1
I1
I0
I1
I1
I0
I0
tp850
a(I1
I1
I1
I0
I1
I1
I0
I1
tp851
a(I1
I1
I1
I0
I1
I1
I1
I0
tp852
a(I1
I1
I1
I0
I1
I1
I1
I1
tp853
a(I1
I1
I1
I1
I0
I0
I0
I0
tp854
a(I1
I1
I1
I1
I0
I0
I0
I1
tp855
a(I1
I1
I1
I1
I0
I0
I1
I0
tp856
a(I1
I1
I1
I1
I0
I0
I1
I1
tp857
a(I1
I1
I1
I1
I0
I1
I0
I0
tp858
a(I1
I1
I1
I1
I0
I1
I0
I1
tp859
a(I1
I1
I1
I1
I0
I1
I1
I0
tp860
a(I1
I1
I1
I1
I0
I1
I1
I1
tp861
a(I1
I1
I1
I1
I1
I0
I0
I0
tp862
a(I1
I1
I1
I1
I1
I0
I0
I1
tp863
a(I1
I1
I1
I1
I1
I0
I1
I0
tp864
a(I1
I1
I1
I1
I1
I0
I1
I1
tp865
a(I1
I1
I1
I1
I1
I1
I0
I0
tp866
a(I1
I1
I1
I1
I1
I1
I0
I1
tp867
a(I1
I1
I1
I1
I1
I1
I1
I0
tp868
a(I1
I1
I1
I1
I1
I1
I1
I1
tp869
asS'output_names'
p870
(lp871
g44
ag46
ag175
ag609
asb.