(lp0
cdeap.creator
Individual
p1
((lp2
F0.6518264029510246
aF-0.3398091727161414
aF0.8726719712889291
aF0.29141948896290615
aF348.0666850406407
atp3
Rp4
(dp5
S'fitness'
p6
ccopy_reg
_reconstructor
p7
(cdeap.creator
FitnessMin
p8
c__builtin__
object
p9
Ntp10
Rp11
(dp12
S'crowding_dist'
p13
Finf
sS'wvalues'
p14
(cnumpy.core.multiarray
scalar
p15
(cnumpy
dtype
p16
(S'f8'
p17
I0
I1
tp18
Rp19
(I3
S'<'
p20
NNNI-1
I-1
I0
tp21
bS'\xe0\xf3\xbe\xb0\x93\x02\x84?'
p22
tp23
Rp24
g15
(g19
S';\xf8\xcd\xfb\x80\x8b%\xc0'
p25
tp26
Rp27
tp28
sbsbag1
((lp29
F0.5779162209561977
aF-0.41126648904323365
aF0.9125167692870055
aF0.5580270179893934
aF348.8283648696141
atp30
Rp31
(dp32
g6
g7
(g8
g9
Ntp33
Rp34
(dp35
g13
Finf
sg14
(g15
(g19
S'\x98\x84H\xf0\xb1\xcd\x83?'
p36
tp37
Rp38
g15
(g19
S'\xb2d\x82"\xe4\x990\xc0'
p39
tp40
Rp41
tp42
sbsbag1
((lp43
F0.675488424216155
aF-0.03628886034617762
aF0.8727819697068943
aF0.12197358741645799
aF305.4034600400928
atp44
Rp45
(dp46
g6
g7
(g8
g9
Ntp47
Rp48
(dp49
g13
Finf
sg14
(F-0.0
F-0.0
tp50
sbsbag1
((lp51
F0.5857525046991892
aF-0.22846930654968245
aF0.7601780882351076
aF0.6620241306326766
aF353.5992099143436
atp52
Rp53
(dp54
g6
g7
(g8
g9
Ntp55
Rp56
(dp57
g13
Finf
sg14
(g15
(g19
S'Q\xacr@\xffA\x84\xbf'
p58
tp59
Rp60
g15
(g19
S'H\x0c\xf2\xe13X\x1e\xc0'
p61
tp62
Rp63
tp64
sbsba.