(lp0
cdeap.creator
Individual
p1
((lp2
F0.7226935315937679
aF-0.5554156896330029
aF0.9192828949977718
aF0.33473119367531595
aF0.5773413512435345
aF-0.8398708370840383
aF0.7937634350196408
aF-0.6635142845559576
aF404.1521333802386
atp3
Rp4
(dp5
S'fitness'
p6
ccopy_reg
_reconstructor
p7
(cdeap.creator
FitnessMin
p8
c__builtin__
object
p9
Ntp10
Rp11
(dp12
S'crowding_dist'
p13
Finf
sS'wvalues'
p14
(cnumpy.core.multiarray
scalar
p15
(cnumpy
dtype
p16
(S'f8'
p17
I0
I1
tp18
Rp19
(I3
S'<'
p20
NNNI-1
I-1
I0
tp21
bS'\xaeg\xe6*\x18\xc7\xd2?'
p22
tp23
Rp24
g15
(g19
S'\xf2 \x14\x80CH*\xc0'
p25
tp26
Rp27
tp28
sbsbag1
((lp29
F0.7178925391265568
aF-0.5554156896330029
aF0.9175608425252297
aF0.33473119367531595
aF0.5773413512435345
aF-0.8398708370840383
aF0.7937634350196408
aF-0.6635142845559576
aF404.1521333802386
atp30
Rp31
(dp32
g6
g7
(g8
g9
Ntp33
Rp34
(dp35
g13
g15
(g19
S'\x88\xdf\xf0Cx\x00\xed?'
p36
tp37
Rp38
sg14
(g15
(g19
S'\xe5\xe7\xa0\x8b\x97\xbc\xd2?'
p39
tp40
Rp41
g15
(g19
S'&\x0e\x84\x17D?*\xc0'
p42
tp43
Rp44
tp45
sbsbag1
((lp46
F0.7296864565588663
aF-0.48691349559872454
aF0.7827470867240597
aF0.4630404379086046
aF0.42537938732514036
aF0.6346678565273947
aF0.9052895068296252
aF-0.5000351886330392
aF347.77362162501373
atp47
Rp48
(dp49
g6
g7
(g8
g9
Ntp50
Rp51
(dp52
g13
g15
(g19
S'\xc8\xa5N\xd6\x92\xf1\xef?'
p53
tp54
Rp55
sg14
(g15
(g19
S'\x90\x93\x12\xd3\x9a\xa3\x91?'
p56
tp57
Rp58
g15
(g19
S'\xfd\x94\xe0\x10\x15\x0e\xfb\xbf'
p59
tp60
Rp61
tp62
sbsbag1
((lp63
F0.5953728796530056
aF-0.34150196838757474
aF0.8354407772050748
aF0.43374425629011676
aF0.4916338193893008
aF-0.6866915311598518
aF0.9371459411774066
aF-0.48457762195357024
aF394.43289161694696
atp64
Rp65
(dp66
g6
g7
(g8
g9
Ntp67
Rp68
(dp69
g13
Finf
sg14
(F-0.0
F-0.0
tp70
sbsba.