ccopy_reg
_reconstructor
p0
(cdeap.tools.support
Logbook
p1
c__builtin__
list
p2
(lp3
(dp4
S'evals'
p5
I4
sS'max'
p6
cnumpy.core.multiarray
_reconstruct
p7
(cnumpy
ndarray
p8
(I0
tp9
S'b'
p10
tp11
Rp12
(I1
(L2L
tp13
cnumpy
dtype
p14
(S'f8'
p15
I0
I1
tp16
Rp17
(I3
S'<'
p18
NNNI-1
I-1
I0
tp19
bI00
S'L\xcf=PWe\x83?&\x0e\x84\x17D?*@'
p20
tp21
bsS'gen'
p22
I0
sS'min'
p23
g7
(g8
(I0
tp24
g10
tp25
Rp26
(I1
(L2L
tp27
g17
I00
S'\xe5\xe7\xa0\x8b\x97\xbc\xd2\xbf\x0b\xdf!\xe1\xaej\n@'
p28
tp29
bsa(dp30
g5
I4
sg6
g7
(g8
(I0
tp31
g10
tp32
Rp33
(I1
(L2L
tp34
g17
I00
S'\x00\x00\x00\x00\x00\x00\x00\x00\xf2 \x14\x80CH*@'
p35
tp36
bsg22
I1
sg23
g7
(g8
(I0
tp37
g10
tp38
Rp39
(I1
(L2L
tp40
g17
I00
S'\xaeg\xe6*\x18\xc7\xd2\xbf\x00\x00\x00\x00\x00\x00\x00\x00'
p41
tp42
bsatp43
Rp44
(dp45
S'log_header'
p46
I01
sS'header'
p47
(S'gen'
p48
S'evals'
p49
S'std'
p50
S'min'
p51
S'avg'
p52
S'max'
p53
tp54
sS'columns_len'
p55
(lp56
I3
aI5
aI3
aI25
aI3
aI35
asS'buffindex'
p57
I2
sS'chapters'
p58
ccollections
defaultdict
p59
(g1
tp60
Rp61
sb.