(lp0
cdeap.creator
Individual
p1
((lp2
F0.46661856265977986
aF-0.42732304534827015
aF0.961021260389881
aF0.5109271683628159
aF0.7048067925545626
aF-0.28823592674532916
aF0.8463865678408657
aF-0.03481659410599898
aF353.5760406910731
atp3
Rp4
(dp5
S'fitness'
p6
ccopy_reg
_reconstructor
p7
(cdeap.creator
FitnessMin
p8
c__builtin__
object
p9
Ntp10
Rp11
(dp12
S'crowding_dist'
p13
Finf
sS'wvalues'
p14
(cnumpy.core.multiarray
scalar
p15
(cnumpy
dtype
p16
(S'f8'
p17
I0
I1
tp18
Rp19
(I3
S'<'
p20
NNNI-1
I-1
I0
tp21
bS'\xa6\x84\x1d\xfe\xeb8\xbe?'
p22
tp23
Rp24
g15
(g19
S'\xac\xc4>5\xba\tU\xc0'
p25
tp26
Rp27
tp28
sbsbag1
((lp29
F0.46661856265977986
aF-0.4006059098839677
aF0.961021260389881
aF0.5109271683628159
aF0.5437191366310165
aF-0.09953092341686376
aF0.8469088718666344
aF-0.28079916868375476
aF353.5760406910731
atp30
Rp31
(dp32
g6
g7
(g8
g9
Ntp33
Rp34
(dp35
g13
g15
(g19
S'\x10si/8\xa7\xd7?'
p36
tp37
Rp38
sg14
(g15
(g19
S'\xdbR\x88\x7f\xe5\xa8\xa0?'
p39
tp40
Rp41
g15
(g19
S'\xb3\xee\x06\xc7\xa6\xdbT\xc0'
p42
tp43
Rp44
tp45
sbsbag1
((lp46
F0.46661856265977986
aF-0.4006059098839677
aF0.961021260389881
aF0.556983113087578
aF0.5437191366310165
aF-0.09953092341686376
aF0.8469264371743281
aF-0.27210655196117517
aF353.5760406910731
atp47
Rp48
(dp49
g6
g7
(g8
g9
Ntp50
Rp51
(dp52
g13
g15
(g19
S';2\x16\xbfl\xcb\xcc?'
p53
tp54
Rp55
sg14
(g15
(g19
S'\x98\xe19\xa5\xc8\x07\xa0?'
p56
tp57
Rp58
g15
(g19
S'\xf7<\x11#D\xdbT\xc0'
p59
tp60
Rp61
tp62
sbsbag1
((lp63
F0.6862597065613658
aF-0.40043142419034505
aF0.961021260389881
aF0.5109271683628159
aF0.5420548174091075
aF-0.09963598014539198
aF0.8469088718666344
aF-0.28079916868375476
aF356.0202299678982
atp64
Rp65
(dp66
g6
g7
(g8
g9
Ntp67
Rp68
(dp69
g13
g15
(g19
S'\xb4!\xc8\x87o\x90\xd0?'
p70
tp71
Rp72
sg14
(g15
(g19
S'\xfa\xcd\x9d^\x1e\xaa\x9d?'
p73
tp74
Rp75
g15
(g19
S'\x91\x1f\xf5\x86\xa4\xcbG\xc0'
p76
tp77
Rp78
tp79
sbsbag1
((lp80
F0.6849123480917467
aF-0.44557958190095165
aF0.8870420105998265
aF0.26832812482771473
aF0.5420481143188741
aF-0.10721787235651509
aF0.8324570868282859
aF-0.14681117888108686
aF353.82089250367886
atp81
Rp82
(dp83
g6
g7
(g8
g9
Ntp84
Rp85
(dp86
g13
g15
(g19
S'4r\xca\x1c\xbe\x01\xd0?'
p87
tp88
Rp89
sg14
(g15
(g19
S'\xd0\xb0\xac9P\x91\x92?'
p90
tp91
Rp92
g15
(g19
S'XY\x1c\xdf\x98.A\xc0'
p93
tp94
Rp95
tp96
sbsbag1
((lp97
F0.6849123480917467
aF-0.44557958190095165
aF0.8870420105998265
aF0.26832812482771473
aF0.650809233626382
aF0.7235656366677287
aF0.8324570868282859
aF-0.14681117888108686
aF328.26817758863916
atp98
Rp99
(dp100
g6
g7
(g8
g9
Ntp101
Rp102
(dp103
g13
g15
(g19
S'\x94\xbd{\xdc{\xfb\xd1?'
p104
tp105
Rp106
sg14
(g15
(g19
S'\x1cl\x82"l\x8f\xde<'
p107
tp108
Rp109
g15
(g19
S'\xb9\x9d\xe7\xa7\x91%:\xc0'
p110
tp111
Rp112
tp113
sbsbag1
((lp114
F0.38262594381236037
aF-0.12209853791215786
aF0.9686687434369681
aF0.7283507165740759
aF0.7120645403389679
aF0.601974283563976
aF0.8922221184927032
aF-0.033021856685731765
aF361.019097579467
atp115
Rp116
(dp117
g6
g7
(g8
g9
Ntp118
Rp119
(dp120
g13
Finf
sg14
(F-0.0
F-0.0
tp121
sbsbag1
((lp122
F0.38262594381236037
aF-0.11926636490980644
aF0.9686687434369681
aF0.7283507165740759
aF0.7120645403389679
aF0.601974283563976
aF0.8922045531850094
aF-0.04173369911962205
aF361.019097579467
atp123
Rp124
(dp125
g6
g7
(g8
g9
Ntp126
Rp127
(dp128
g13
g15
(g19
S'\x00\x00\x00\x00\x00\x00\xf0\x7f'
p129
tp130
Rp131
sg14
(F-0.0
F-0.0
tp132
sbsba.